	.file	"body.c"
	.text
	.globl	func_no_body
	.type	func_no_body, @function
func_no_body:
.LFB0:
	.cfi_startproc
	pushq	%rbp
	.cfi_def_cfa_offset 16
	.cfi_offset 6, -16
	movq	%rsp, %rbp
	.cfi_def_cfa_register 6
	movl	%edi, -4(%rbp)
	popq	%rbp
	.cfi_def_cfa 7, 8
	ret
	.cfi_endproc
.LFE0:
	.size	func_no_body, .-func_no_body
	.globl	func_small_body
	.type	func_small_body, @function
func_small_body:
.LFB1:
	.cfi_startproc
	pushq	%rbp
	.cfi_def_cfa_offset 16
	.cfi_offset 6, -16
	movq	%rsp, %rbp
	.cfi_def_cfa_register 6
	movl	%edi, -20(%rbp)
	movl	-20(%rbp), %eax
	addl	$5, %eax
	movl	%eax, -4(%rbp)
	popq	%rbp
	.cfi_def_cfa 7, 8
	ret
	.cfi_endproc
.LFE1:
	.size	func_small_body, .-func_small_body
	.globl	func_big_body
	.type	func_big_body, @function
func_big_body:
.LFB2:
	.cfi_startproc
	pushq	%rbp
	.cfi_def_cfa_offset 16
	.cfi_offset 6, -16
	movq	%rsp, %rbp
	.cfi_def_cfa_register 6
	movl	%edi, -20(%rbp)
	movl	-20(%rbp), %eax
	addl	$5, %eax
	movl	%eax, -4(%rbp)
	movl	-4(%rbp), %eax
	cltd
	idivl	-20(%rbp)
	movl	%eax, -4(%rbp)
	movl	-20(%rbp), %eax
	subl	%eax, -4(%rbp)
	popq	%rbp
	.cfi_def_cfa 7, 8
	ret
	.cfi_endproc
.LFE2:
	.size	func_big_body, .-func_big_body
	.ident	"GCC: (GNU) 4.8.5 20150623 (Red Hat 4.8.5-44)"
	.section	.note.GNU-stack,"",@progbits
