	.file	"return.c"
	.text
	.globl	func_no_return
	.type	func_no_return, @function
func_no_return:
.LFB0:
	.cfi_startproc
	pushq	%rbp
	.cfi_def_cfa_offset 16
	.cfi_offset 6, -16
	movq	%rsp, %rbp
	.cfi_def_cfa_register 6
	popq	%rbp
	.cfi_def_cfa 7, 8
	ret
	.cfi_endproc
.LFE0:
	.size	func_no_return, .-func_no_return
	.globl	func_1_return_int
	.type	func_1_return_int, @function
func_1_return_int:
.LFB1:
	.cfi_startproc
	pushq	%rbp
	.cfi_def_cfa_offset 16
	.cfi_offset 6, -16
	movq	%rsp, %rbp
	.cfi_def_cfa_register 6
	movl	$666, %eax
	popq	%rbp
	.cfi_def_cfa 7, 8
	ret
	.cfi_endproc
.LFE1:
	.size	func_1_return_int, .-func_1_return_int
	.globl	func_1_return_double
	.type	func_1_return_double, @function
func_1_return_double:
.LFB2:
	.cfi_startproc
	pushq	%rbp
	.cfi_def_cfa_offset 16
	.cfi_offset 6, -16
	movq	%rsp, %rbp
	.cfi_def_cfa_register 6
	movabsq	$4637526828664309678, %rax
	movq	%rax, -8(%rbp)
	movsd	-8(%rbp), %xmm0
	popq	%rbp
	.cfi_def_cfa 7, 8
	ret
	.cfi_endproc
.LFE2:
	.size	func_1_return_double, .-func_1_return_double
	.ident	"GCC: (GNU) 4.8.5 20150623 (Red Hat 4.8.5-44)"
	.section	.note.GNU-stack,"",@progbits
