
offset_field:     file format elf64-x86-64


Disassembly of section .init:

0000000000400420 <_init>:
  400420:	48 83 ec 08          	sub    $0x8,%rsp
  400424:	48 8b 05 cd 0b 20 00 	mov    0x200bcd(%rip),%rax        # 600ff8 <__gmon_start__>
  40042b:	48 85 c0             	test   %rax,%rax
  40042e:	74 05                	je     400435 <_init+0x15>
  400430:	e8 4b 00 00 00       	callq  400480 <__gmon_start__@plt>
  400435:	48 83 c4 08          	add    $0x8,%rsp
  400439:	c3                   	retq   

Disassembly of section .plt:

0000000000400440 <.plt>:
  400440:	ff 35 c2 0b 20 00    	pushq  0x200bc2(%rip)        # 601008 <_GLOBAL_OFFSET_TABLE_+0x8>
  400446:	ff 25 c4 0b 20 00    	jmpq   *0x200bc4(%rip)        # 601010 <_GLOBAL_OFFSET_TABLE_+0x10>
  40044c:	0f 1f 40 00          	nopl   0x0(%rax)

0000000000400450 <putchar@plt>:
  400450:	ff 25 c2 0b 20 00    	jmpq   *0x200bc2(%rip)        # 601018 <putchar@GLIBC_2.2.5>
  400456:	68 00 00 00 00       	pushq  $0x0
  40045b:	e9 e0 ff ff ff       	jmpq   400440 <.plt>

0000000000400460 <printf@plt>:
  400460:	ff 25 ba 0b 20 00    	jmpq   *0x200bba(%rip)        # 601020 <printf@GLIBC_2.2.5>
  400466:	68 01 00 00 00       	pushq  $0x1
  40046b:	e9 d0 ff ff ff       	jmpq   400440 <.plt>

0000000000400470 <__libc_start_main@plt>:
  400470:	ff 25 b2 0b 20 00    	jmpq   *0x200bb2(%rip)        # 601028 <__libc_start_main@GLIBC_2.2.5>
  400476:	68 02 00 00 00       	pushq  $0x2
  40047b:	e9 c0 ff ff ff       	jmpq   400440 <.plt>

0000000000400480 <__gmon_start__@plt>:
  400480:	ff 25 aa 0b 20 00    	jmpq   *0x200baa(%rip)        # 601030 <__gmon_start__>
  400486:	68 03 00 00 00       	pushq  $0x3
  40048b:	e9 b0 ff ff ff       	jmpq   400440 <.plt>

Disassembly of section .text:

0000000000400490 <_start>:
  400490:	31 ed                	xor    %ebp,%ebp
  400492:	49 89 d1             	mov    %rdx,%r9
  400495:	5e                   	pop    %rsi
  400496:	48 89 e2             	mov    %rsp,%rdx
  400499:	48 83 e4 f0          	and    $0xfffffffffffffff0,%rsp
  40049d:	50                   	push   %rax
  40049e:	54                   	push   %rsp
  40049f:	49 c7 c0 90 07 40 00 	mov    $0x400790,%r8
  4004a6:	48 c7 c1 20 07 40 00 	mov    $0x400720,%rcx
  4004ad:	48 c7 c7 64 06 40 00 	mov    $0x400664,%rdi
  4004b4:	e8 b7 ff ff ff       	callq  400470 <__libc_start_main@plt>
  4004b9:	f4                   	hlt    
  4004ba:	66 0f 1f 44 00 00    	nopw   0x0(%rax,%rax,1)

00000000004004c0 <deregister_tm_clones>:
  4004c0:	b8 47 10 60 00       	mov    $0x601047,%eax
  4004c5:	55                   	push   %rbp
  4004c6:	48 2d 40 10 60 00    	sub    $0x601040,%rax
  4004cc:	48 83 f8 0e          	cmp    $0xe,%rax
  4004d0:	48 89 e5             	mov    %rsp,%rbp
  4004d3:	77 02                	ja     4004d7 <deregister_tm_clones+0x17>
  4004d5:	5d                   	pop    %rbp
  4004d6:	c3                   	retq   
  4004d7:	b8 00 00 00 00       	mov    $0x0,%eax
  4004dc:	48 85 c0             	test   %rax,%rax
  4004df:	74 f4                	je     4004d5 <deregister_tm_clones+0x15>
  4004e1:	5d                   	pop    %rbp
  4004e2:	bf 40 10 60 00       	mov    $0x601040,%edi
  4004e7:	ff e0                	jmpq   *%rax
  4004e9:	0f 1f 80 00 00 00 00 	nopl   0x0(%rax)

00000000004004f0 <register_tm_clones>:
  4004f0:	b8 40 10 60 00       	mov    $0x601040,%eax
  4004f5:	55                   	push   %rbp
  4004f6:	48 2d 40 10 60 00    	sub    $0x601040,%rax
  4004fc:	48 c1 f8 03          	sar    $0x3,%rax
  400500:	48 89 e5             	mov    %rsp,%rbp
  400503:	48 89 c2             	mov    %rax,%rdx
  400506:	48 c1 ea 3f          	shr    $0x3f,%rdx
  40050a:	48 01 d0             	add    %rdx,%rax
  40050d:	48 d1 f8             	sar    %rax
  400510:	75 02                	jne    400514 <register_tm_clones+0x24>
  400512:	5d                   	pop    %rbp
  400513:	c3                   	retq   
  400514:	ba 00 00 00 00       	mov    $0x0,%edx
  400519:	48 85 d2             	test   %rdx,%rdx
  40051c:	74 f4                	je     400512 <register_tm_clones+0x22>
  40051e:	5d                   	pop    %rbp
  40051f:	48 89 c6             	mov    %rax,%rsi
  400522:	bf 40 10 60 00       	mov    $0x601040,%edi
  400527:	ff e2                	jmpq   *%rdx
  400529:	0f 1f 80 00 00 00 00 	nopl   0x0(%rax)

0000000000400530 <__do_global_dtors_aux>:
  400530:	80 3d 09 0b 20 00 00 	cmpb   $0x0,0x200b09(%rip)        # 601040 <__TMC_END__>
  400537:	75 11                	jne    40054a <__do_global_dtors_aux+0x1a>
  400539:	55                   	push   %rbp
  40053a:	48 89 e5             	mov    %rsp,%rbp
  40053d:	e8 7e ff ff ff       	callq  4004c0 <deregister_tm_clones>
  400542:	5d                   	pop    %rbp
  400543:	c6 05 f6 0a 20 00 01 	movb   $0x1,0x200af6(%rip)        # 601040 <__TMC_END__>
  40054a:	f3 c3                	repz retq 
  40054c:	0f 1f 40 00          	nopl   0x0(%rax)

0000000000400550 <frame_dummy>:
  400550:	48 83 3d c8 08 20 00 	cmpq   $0x0,0x2008c8(%rip)        # 600e20 <__JCR_END__>
  400557:	00 
  400558:	74 1e                	je     400578 <frame_dummy+0x28>
  40055a:	b8 00 00 00 00       	mov    $0x0,%eax
  40055f:	48 85 c0             	test   %rax,%rax
  400562:	74 14                	je     400578 <frame_dummy+0x28>
  400564:	55                   	push   %rbp
  400565:	bf 20 0e 60 00       	mov    $0x600e20,%edi
  40056a:	48 89 e5             	mov    %rsp,%rbp
  40056d:	ff d0                	callq  *%rax
  40056f:	5d                   	pop    %rbp
  400570:	e9 7b ff ff ff       	jmpq   4004f0 <register_tm_clones>
  400575:	0f 1f 00             	nopl   (%rax)
  400578:	e9 73 ff ff ff       	jmpq   4004f0 <register_tm_clones>

000000000040057d <func_river>:
  40057d:	55                   	push   %rbp
  40057e:	48 89 e5             	mov    %rsp,%rbp
  400581:	48 83 ec 30          	sub    $0x30,%rsp
  400585:	48 89 7d d8          	mov    %rdi,-0x28(%rbp)
  400589:	48 c7 45 f8 08 00 00 	movq   $0x8,-0x8(%rbp)
  400590:	00 
  400591:	48 8b 45 d8          	mov    -0x28(%rbp),%rax
  400595:	48 2b 45 f8          	sub    -0x8(%rbp),%rax
  400599:	48 89 45 f0          	mov    %rax,-0x10(%rbp)
  40059d:	48 8b 45 f0          	mov    -0x10(%rbp),%rax
  4005a1:	48 89 45 e8          	mov    %rax,-0x18(%rbp)
  4005a5:	bf 0a 00 00 00       	mov    $0xa,%edi
  4005aa:	e8 a1 fe ff ff       	callq  400450 <putchar@plt>
  4005af:	48 8b 45 d8          	mov    -0x28(%rbp),%rax
  4005b3:	48 89 c6             	mov    %rax,%rsi
  4005b6:	bf b0 07 40 00       	mov    $0x4007b0,%edi
  4005bb:	b8 00 00 00 00       	mov    $0x0,%eax
  4005c0:	e8 9b fe ff ff       	callq  400460 <printf@plt>
  4005c5:	48 8b 45 f0          	mov    -0x10(%rbp),%rax
  4005c9:	48 89 c6             	mov    %rax,%rsi
  4005cc:	bf c4 07 40 00       	mov    $0x4007c4,%edi
  4005d1:	b8 00 00 00 00       	mov    $0x0,%eax
  4005d6:	e8 85 fe ff ff       	callq  400460 <printf@plt>
  4005db:	bf 0a 00 00 00       	mov    $0xa,%edi
  4005e0:	e8 6b fe ff ff       	callq  400450 <putchar@plt>
  4005e5:	48 8b 45 d8          	mov    -0x28(%rbp),%rax
  4005e9:	8b 50 04             	mov    0x4(%rax),%edx
  4005ec:	48 8b 45 d8          	mov    -0x28(%rbp),%rax
  4005f0:	8b 00                	mov    (%rax),%eax
  4005f2:	89 c6                	mov    %eax,%esi
  4005f4:	bf d8 07 40 00       	mov    $0x4007d8,%edi
  4005f9:	b8 00 00 00 00       	mov    $0x0,%eax
  4005fe:	e8 5d fe ff ff       	callq  400460 <printf@plt>
  400603:	48 8b 45 e8          	mov    -0x18(%rbp),%rax
  400607:	48 8b 00             	mov    (%rax),%rax
  40060a:	48 89 c6             	mov    %rax,%rsi
  40060d:	bf f7 07 40 00       	mov    $0x4007f7,%edi
  400612:	b8 00 00 00 00       	mov    $0x0,%eax
  400617:	e8 44 fe ff ff       	callq  400460 <printf@plt>
  40061c:	48 8b 45 e8          	mov    -0x18(%rbp),%rax
  400620:	48 8b 40 10          	mov    0x10(%rax),%rax
  400624:	48 8b 55 e8          	mov    -0x18(%rbp),%rdx
  400628:	48 89 d7             	mov    %rdx,%rdi
  40062b:	ff d0                	callq  *%rax
  40062d:	c9                   	leaveq 
  40062e:	c3                   	retq   

000000000040062f <func_fish_swim>:
  40062f:	55                   	push   %rbp
  400630:	48 89 e5             	mov    %rsp,%rbp
  400633:	48 83 ec 10          	sub    $0x10,%rsp
  400637:	48 89 7d f8          	mov    %rdi,-0x8(%rbp)
  40063b:	48 8b 45 f8          	mov    -0x8(%rbp),%rax
  40063f:	8b 48 08             	mov    0x8(%rax),%ecx
  400642:	48 8b 45 f8          	mov    -0x8(%rbp),%rax
  400646:	8b 50 0c             	mov    0xc(%rax),%edx
  400649:	48 8b 45 f8          	mov    -0x8(%rbp),%rax
  40064d:	48 8b 00             	mov    (%rax),%rax
  400650:	48 89 c6             	mov    %rax,%rsi
  400653:	bf 10 08 40 00       	mov    $0x400810,%edi
  400658:	b8 00 00 00 00       	mov    $0x0,%eax
  40065d:	e8 fe fd ff ff       	callq  400460 <printf@plt>
  400662:	c9                   	leaveq 
  400663:	c3                   	retq   

0000000000400664 <main>:
  400664:	55                   	push   %rbp
  400665:	48 89 e5             	mov    %rsp,%rbp
  400668:	48 83 ec 30          	sub    $0x30,%rsp
  40066c:	48 c7 45 f8 08 00 00 	movq   $0x8,-0x8(%rbp)
  400673:	00 
  400674:	48 8b 45 f8          	mov    -0x8(%rbp),%rax
  400678:	48 89 c6             	mov    %rax,%rsi
  40067b:	bf 4e 08 40 00       	mov    $0x40084e,%edi
  400680:	b8 00 00 00 00       	mov    $0x0,%eax
  400685:	e8 d6 fd ff ff       	callq  400460 <printf@plt>
  40068a:	48 c7 45 f0 00 00 00 	movq   $0x0,-0x10(%rbp)
  400691:	00 
  400692:	48 8b 45 f0          	mov    -0x10(%rbp),%rax
  400696:	48 83 c0 08          	add    $0x8,%rax
  40069a:	48 89 45 e8          	mov    %rax,-0x18(%rbp)
  40069e:	48 8b 45 e8          	mov    -0x18(%rbp),%rax
  4006a2:	48 89 45 e0          	mov    %rax,-0x20(%rbp)
  4006a6:	48 8b 45 e0          	mov    -0x20(%rbp),%rax
  4006aa:	48 89 45 d0          	mov    %rax,-0x30(%rbp)
  4006ae:	48 8b 45 d0          	mov    -0x30(%rbp),%rax
  4006b2:	48 89 c6             	mov    %rax,%rsi
  4006b5:	bf 62 08 40 00       	mov    $0x400862,%edi
  4006ba:	b8 00 00 00 00       	mov    $0x0,%eax
  4006bf:	e8 9c fd ff ff       	callq  400460 <printf@plt>
  4006c4:	48 c7 45 d8 0c 00 00 	movq   $0xc,-0x28(%rbp)
  4006cb:	00 
  4006cc:	48 8b 45 d8          	mov    -0x28(%rbp),%rax
  4006d0:	48 89 c6             	mov    %rax,%rsi
  4006d3:	bf 76 08 40 00       	mov    $0x400876,%edi
  4006d8:	b8 00 00 00 00       	mov    $0x0,%eax
  4006dd:	e8 7e fd ff ff       	callq  400460 <printf@plt>
  4006e2:	48 c7 05 63 09 20 00 	movq   $0x64,0x200963(%rip)        # 601050 <fish>
  4006e9:	64 00 00 00 
  4006ed:	c7 05 61 09 20 00 03 	movl   $0x3,0x200961(%rip)        # 601058 <fish+0x8>
  4006f4:	00 00 00 
  4006f7:	c7 05 5b 09 20 00 02 	movl   $0x2,0x20095b(%rip)        # 60105c <fish+0xc>
  4006fe:	00 00 00 
  400701:	48 c7 05 54 09 20 00 	movq   $0x40062f,0x200954(%rip)        # 601060 <fish+0x10>
  400708:	2f 06 40 00 
  40070c:	bf 58 10 60 00       	mov    $0x601058,%edi
  400711:	e8 67 fe ff ff       	callq  40057d <func_river>
  400716:	b8 00 00 00 00       	mov    $0x0,%eax
  40071b:	c9                   	leaveq 
  40071c:	c3                   	retq   
  40071d:	0f 1f 00             	nopl   (%rax)

0000000000400720 <__libc_csu_init>:
  400720:	41 57                	push   %r15
  400722:	41 89 ff             	mov    %edi,%r15d
  400725:	41 56                	push   %r14
  400727:	49 89 f6             	mov    %rsi,%r14
  40072a:	41 55                	push   %r13
  40072c:	49 89 d5             	mov    %rdx,%r13
  40072f:	41 54                	push   %r12
  400731:	4c 8d 25 d8 06 20 00 	lea    0x2006d8(%rip),%r12        # 600e10 <__frame_dummy_init_array_entry>
  400738:	55                   	push   %rbp
  400739:	48 8d 2d d8 06 20 00 	lea    0x2006d8(%rip),%rbp        # 600e18 <__init_array_end>
  400740:	53                   	push   %rbx
  400741:	4c 29 e5             	sub    %r12,%rbp
  400744:	31 db                	xor    %ebx,%ebx
  400746:	48 c1 fd 03          	sar    $0x3,%rbp
  40074a:	48 83 ec 08          	sub    $0x8,%rsp
  40074e:	e8 cd fc ff ff       	callq  400420 <_init>
  400753:	48 85 ed             	test   %rbp,%rbp
  400756:	74 1e                	je     400776 <__libc_csu_init+0x56>
  400758:	0f 1f 84 00 00 00 00 	nopl   0x0(%rax,%rax,1)
  40075f:	00 
  400760:	4c 89 ea             	mov    %r13,%rdx
  400763:	4c 89 f6             	mov    %r14,%rsi
  400766:	44 89 ff             	mov    %r15d,%edi
  400769:	41 ff 14 dc          	callq  *(%r12,%rbx,8)
  40076d:	48 83 c3 01          	add    $0x1,%rbx
  400771:	48 39 eb             	cmp    %rbp,%rbx
  400774:	75 ea                	jne    400760 <__libc_csu_init+0x40>
  400776:	48 83 c4 08          	add    $0x8,%rsp
  40077a:	5b                   	pop    %rbx
  40077b:	5d                   	pop    %rbp
  40077c:	41 5c                	pop    %r12
  40077e:	41 5d                	pop    %r13
  400780:	41 5e                	pop    %r14
  400782:	41 5f                	pop    %r15
  400784:	c3                   	retq   
  400785:	90                   	nop
  400786:	66 2e 0f 1f 84 00 00 	nopw   %cs:0x0(%rax,%rax,1)
  40078d:	00 00 00 

0000000000400790 <__libc_csu_fini>:
  400790:	f3 c3                	repz retq 

Disassembly of section .fini:

0000000000400794 <_fini>:
  400794:	48 83 ec 08          	sub    $0x8,%rsp
  400798:	48 83 c4 08          	add    $0x8,%rsp
  40079c:	c3                   	retq   
