
percpu:     file format elf64-x86-64


Disassembly of section .init:

0000000000400678 <_init>:
  400678:	48 83 ec 08          	sub    $0x8,%rsp
  40067c:	48 8b 05 75 19 20 00 	mov    0x201975(%rip),%rax        # 601ff8 <__gmon_start__>
  400683:	48 85 c0             	test   %rax,%rax
  400686:	74 05                	je     40068d <_init+0x15>
  400688:	e8 83 00 00 00       	callq  400710 <__gmon_start__@plt>
  40068d:	48 83 c4 08          	add    $0x8,%rsp
  400691:	c3                   	retq   

Disassembly of section .plt:

00000000004006a0 <.plt>:
  4006a0:	ff 35 62 19 20 00    	pushq  0x201962(%rip)        # 602008 <_GLOBAL_OFFSET_TABLE_+0x8>
  4006a6:	ff 25 64 19 20 00    	jmpq   *0x201964(%rip)        # 602010 <_GLOBAL_OFFSET_TABLE_+0x10>
  4006ac:	0f 1f 40 00          	nopl   0x0(%rax)

00000000004006b0 <free@plt>:
  4006b0:	ff 25 62 19 20 00    	jmpq   *0x201962(%rip)        # 602018 <free@GLIBC_2.2.5>
  4006b6:	68 00 00 00 00       	pushq  $0x0
  4006bb:	e9 e0 ff ff ff       	jmpq   4006a0 <.plt>

00000000004006c0 <putchar@plt>:
  4006c0:	ff 25 5a 19 20 00    	jmpq   *0x20195a(%rip)        # 602020 <putchar@GLIBC_2.2.5>
  4006c6:	68 01 00 00 00       	pushq  $0x1
  4006cb:	e9 d0 ff ff ff       	jmpq   4006a0 <.plt>

00000000004006d0 <pthread_create@plt>:
  4006d0:	ff 25 52 19 20 00    	jmpq   *0x201952(%rip)        # 602028 <pthread_create@GLIBC_2.2.5>
  4006d6:	68 02 00 00 00       	pushq  $0x2
  4006db:	e9 c0 ff ff ff       	jmpq   4006a0 <.plt>

00000000004006e0 <printf@plt>:
  4006e0:	ff 25 4a 19 20 00    	jmpq   *0x20194a(%rip)        # 602030 <printf@GLIBC_2.2.5>
  4006e6:	68 03 00 00 00       	pushq  $0x3
  4006eb:	e9 b0 ff ff ff       	jmpq   4006a0 <.plt>

00000000004006f0 <memset@plt>:
  4006f0:	ff 25 42 19 20 00    	jmpq   *0x201942(%rip)        # 602038 <memset@GLIBC_2.2.5>
  4006f6:	68 04 00 00 00       	pushq  $0x4
  4006fb:	e9 a0 ff ff ff       	jmpq   4006a0 <.plt>

0000000000400700 <__libc_start_main@plt>:
  400700:	ff 25 3a 19 20 00    	jmpq   *0x20193a(%rip)        # 602040 <__libc_start_main@GLIBC_2.2.5>
  400706:	68 05 00 00 00       	pushq  $0x5
  40070b:	e9 90 ff ff ff       	jmpq   4006a0 <.plt>

0000000000400710 <__gmon_start__@plt>:
  400710:	ff 25 32 19 20 00    	jmpq   *0x201932(%rip)        # 602048 <__gmon_start__>
  400716:	68 06 00 00 00       	pushq  $0x6
  40071b:	e9 80 ff ff ff       	jmpq   4006a0 <.plt>

0000000000400720 <malloc@plt>:
  400720:	ff 25 2a 19 20 00    	jmpq   *0x20192a(%rip)        # 602050 <malloc@GLIBC_2.2.5>
  400726:	68 07 00 00 00       	pushq  $0x7
  40072b:	e9 70 ff ff ff       	jmpq   4006a0 <.plt>

0000000000400730 <sysconf@plt>:
  400730:	ff 25 22 19 20 00    	jmpq   *0x201922(%rip)        # 602058 <sysconf@GLIBC_2.2.5>
  400736:	68 08 00 00 00       	pushq  $0x8
  40073b:	e9 60 ff ff ff       	jmpq   4006a0 <.plt>

0000000000400740 <pthread_join@plt>:
  400740:	ff 25 1a 19 20 00    	jmpq   *0x20191a(%rip)        # 602060 <pthread_join@GLIBC_2.2.5>
  400746:	68 09 00 00 00       	pushq  $0x9
  40074b:	e9 50 ff ff ff       	jmpq   4006a0 <.plt>

0000000000400750 <sched_getcpu@plt>:
  400750:	ff 25 12 19 20 00    	jmpq   *0x201912(%rip)        # 602068 <sched_getcpu@GLIBC_2.6>
  400756:	68 0a 00 00 00       	pushq  $0xa
  40075b:	e9 40 ff ff ff       	jmpq   4006a0 <.plt>

0000000000400760 <sleep@plt>:
  400760:	ff 25 0a 19 20 00    	jmpq   *0x20190a(%rip)        # 602070 <sleep@GLIBC_2.2.5>
  400766:	68 0b 00 00 00       	pushq  $0xb
  40076b:	e9 30 ff ff ff       	jmpq   4006a0 <.plt>

Disassembly of section .text:

0000000000400770 <_start>:
  400770:	31 ed                	xor    %ebp,%ebp
  400772:	49 89 d1             	mov    %rdx,%r9
  400775:	5e                   	pop    %rsi
  400776:	48 89 e2             	mov    %rsp,%rdx
  400779:	48 83 e4 f0          	and    $0xfffffffffffffff0,%rsp
  40077d:	50                   	push   %rax
  40077e:	54                   	push   %rsp
  40077f:	49 c7 c0 50 0c 40 00 	mov    $0x400c50,%r8
  400786:	48 c7 c1 e0 0b 40 00 	mov    $0x400be0,%rcx
  40078d:	48 c7 c7 3f 0b 40 00 	mov    $0x400b3f,%rdi
  400794:	e8 67 ff ff ff       	callq  400700 <__libc_start_main@plt>
  400799:	f4                   	hlt    
  40079a:	66 0f 1f 44 00 00    	nopw   0x0(%rax,%rax,1)

00000000004007a0 <deregister_tm_clones>:
  4007a0:	b8 87 20 60 00       	mov    $0x602087,%eax
  4007a5:	55                   	push   %rbp
  4007a6:	48 2d 80 20 60 00    	sub    $0x602080,%rax
  4007ac:	48 83 f8 0e          	cmp    $0xe,%rax
  4007b0:	48 89 e5             	mov    %rsp,%rbp
  4007b3:	77 02                	ja     4007b7 <deregister_tm_clones+0x17>
  4007b5:	5d                   	pop    %rbp
  4007b6:	c3                   	retq   
  4007b7:	b8 00 00 00 00       	mov    $0x0,%eax
  4007bc:	48 85 c0             	test   %rax,%rax
  4007bf:	74 f4                	je     4007b5 <deregister_tm_clones+0x15>
  4007c1:	5d                   	pop    %rbp
  4007c2:	bf 80 20 60 00       	mov    $0x602080,%edi
  4007c7:	ff e0                	jmpq   *%rax
  4007c9:	0f 1f 80 00 00 00 00 	nopl   0x0(%rax)

00000000004007d0 <register_tm_clones>:
  4007d0:	b8 80 20 60 00       	mov    $0x602080,%eax
  4007d5:	55                   	push   %rbp
  4007d6:	48 2d 80 20 60 00    	sub    $0x602080,%rax
  4007dc:	48 c1 f8 03          	sar    $0x3,%rax
  4007e0:	48 89 e5             	mov    %rsp,%rbp
  4007e3:	48 89 c2             	mov    %rax,%rdx
  4007e6:	48 c1 ea 3f          	shr    $0x3f,%rdx
  4007ea:	48 01 d0             	add    %rdx,%rax
  4007ed:	48 d1 f8             	sar    %rax
  4007f0:	75 02                	jne    4007f4 <register_tm_clones+0x24>
  4007f2:	5d                   	pop    %rbp
  4007f3:	c3                   	retq   
  4007f4:	ba 00 00 00 00       	mov    $0x0,%edx
  4007f9:	48 85 d2             	test   %rdx,%rdx
  4007fc:	74 f4                	je     4007f2 <register_tm_clones+0x22>
  4007fe:	5d                   	pop    %rbp
  4007ff:	48 89 c6             	mov    %rax,%rsi
  400802:	bf 80 20 60 00       	mov    $0x602080,%edi
  400807:	ff e2                	jmpq   *%rdx
  400809:	0f 1f 80 00 00 00 00 	nopl   0x0(%rax)

0000000000400810 <__do_global_dtors_aux>:
  400810:	80 3d 69 18 20 00 00 	cmpb   $0x0,0x201869(%rip)        # 602080 <__TMC_END__>
  400817:	75 11                	jne    40082a <__do_global_dtors_aux+0x1a>
  400819:	55                   	push   %rbp
  40081a:	48 89 e5             	mov    %rsp,%rbp
  40081d:	e8 7e ff ff ff       	callq  4007a0 <deregister_tm_clones>
  400822:	5d                   	pop    %rbp
  400823:	c6 05 56 18 20 00 01 	movb   $0x1,0x201856(%rip)        # 602080 <__TMC_END__>
  40082a:	f3 c3                	repz retq 
  40082c:	0f 1f 40 00          	nopl   0x0(%rax)

0000000000400830 <frame_dummy>:
  400830:	48 83 3d d8 15 20 00 	cmpq   $0x0,0x2015d8(%rip)        # 601e10 <__JCR_END__>
  400837:	00 
  400838:	74 1e                	je     400858 <frame_dummy+0x28>
  40083a:	b8 00 00 00 00       	mov    $0x0,%eax
  40083f:	48 85 c0             	test   %rax,%rax
  400842:	74 14                	je     400858 <frame_dummy+0x28>
  400844:	55                   	push   %rbp
  400845:	bf 10 1e 60 00       	mov    $0x601e10,%edi
  40084a:	48 89 e5             	mov    %rsp,%rbp
  40084d:	ff d0                	callq  *%rax
  40084f:	5d                   	pop    %rbp
  400850:	e9 7b ff ff ff       	jmpq   4007d0 <register_tm_clones>
  400855:	0f 1f 00             	nopl   (%rax)
  400858:	e9 73 ff ff ff       	jmpq   4007d0 <register_tm_clones>

000000000040085d <build_array>:
  40085d:	55                   	push   %rbp
  40085e:	48 89 e5             	mov    %rsp,%rbp
  400861:	48 83 ec 10          	sub    $0x10,%rsp
  400865:	ba b0 20 a0 00       	mov    $0xa020b0,%edx
  40086a:	b8 a0 20 a0 00       	mov    $0xa020a0,%eax
  40086f:	48 29 c2             	sub    %rax,%rdx
  400872:	48 89 d0             	mov    %rdx,%rax
  400875:	89 05 21 18 20 00    	mov    %eax,0x201821(%rip)        # 60209c <section_size>
  40087b:	8b 15 1b 18 20 00    	mov    0x20181b(%rip),%edx        # 60209c <section_size>
  400881:	8b 05 01 18 20 00    	mov    0x201801(%rip),%eax        # 602088 <cpu_total>
  400887:	0f af c2             	imul   %edx,%eax
  40088a:	89 45 fc             	mov    %eax,-0x4(%rbp)
  40088d:	8b 45 fc             	mov    -0x4(%rbp),%eax
  400890:	48 98                	cltq   
  400892:	48 89 c7             	mov    %rax,%rdi
  400895:	e8 86 fe ff ff       	callq  400720 <malloc@plt>
  40089a:	48 89 05 ef 17 20 00 	mov    %rax,0x2017ef(%rip)        # 602090 <array_ptr>
  4008a1:	8b 45 fc             	mov    -0x4(%rbp),%eax
  4008a4:	48 63 d0             	movslq %eax,%rdx
  4008a7:	48 8b 05 e2 17 20 00 	mov    0x2017e2(%rip),%rax        # 602090 <array_ptr>
  4008ae:	be 00 00 00 00       	mov    $0x0,%esi
  4008b3:	48 89 c7             	mov    %rax,%rdi
  4008b6:	e8 35 fe ff ff       	callq  4006f0 <memset@plt>
  4008bb:	8b 05 c7 17 20 00    	mov    0x2017c7(%rip),%eax        # 602088 <cpu_total>
  4008c1:	89 c6                	mov    %eax,%esi
  4008c3:	bf 70 0c 40 00       	mov    $0x400c70,%edi
  4008c8:	b8 00 00 00 00       	mov    $0x0,%eax
  4008cd:	e8 0e fe ff ff       	callq  4006e0 <printf@plt>
  4008d2:	8b 05 c4 17 20 00    	mov    0x2017c4(%rip),%eax        # 60209c <section_size>
  4008d8:	89 c6                	mov    %eax,%esi
  4008da:	bf 85 0c 40 00       	mov    $0x400c85,%edi
  4008df:	b8 00 00 00 00       	mov    $0x0,%eax
  4008e4:	e8 f7 fd ff ff       	callq  4006e0 <printf@plt>
  4008e9:	48 8b 05 a0 17 20 00 	mov    0x2017a0(%rip),%rax        # 602090 <array_ptr>
  4008f0:	48 89 c6             	mov    %rax,%rsi
  4008f3:	bf 9a 0c 40 00       	mov    $0x400c9a,%edi
  4008f8:	b8 00 00 00 00       	mov    $0x0,%eax
  4008fd:	e8 de fd ff ff       	callq  4006e0 <printf@plt>
  400902:	c9                   	leaveq 
  400903:	c3                   	retq   

0000000000400904 <get_per_cat>:
  400904:	55                   	push   %rbp
  400905:	48 89 e5             	mov    %rsp,%rbp
  400908:	48 83 ec 20          	sub    $0x20,%rsp
  40090c:	b8 00 00 00 00       	mov    $0x0,%eax
  400911:	e8 3a fe ff ff       	callq  400750 <sched_getcpu@plt>
  400916:	89 45 fc             	mov    %eax,-0x4(%rbp)
  400919:	48 8b 15 70 17 20 00 	mov    0x201770(%rip),%rdx        # 602090 <array_ptr>
  400920:	8b 05 76 17 20 00    	mov    0x201776(%rip),%eax        # 60209c <section_size>
  400926:	0f af 45 fc          	imul   -0x4(%rbp),%eax
  40092a:	48 98                	cltq   
  40092c:	48 01 d0             	add    %rdx,%rax
  40092f:	48 89 45 f0          	mov    %rax,-0x10(%rbp)
  400933:	ba a0 20 a0 00       	mov    $0xa020a0,%edx
  400938:	b8 a0 20 a0 00       	mov    $0xa020a0,%eax
  40093d:	48 29 c2             	sub    %rax,%rdx
  400940:	48 89 d0             	mov    %rdx,%rax
  400943:	89 45 ec             	mov    %eax,-0x14(%rbp)
  400946:	8b 45 ec             	mov    -0x14(%rbp),%eax
  400949:	48 63 d0             	movslq %eax,%rdx
  40094c:	48 8b 45 f0          	mov    -0x10(%rbp),%rax
  400950:	48 01 d0             	add    %rdx,%rax
  400953:	48 89 45 e0          	mov    %rax,-0x20(%rbp)
  400957:	48 8b 45 e0          	mov    -0x20(%rbp),%rax
  40095b:	c9                   	leaveq 
  40095c:	c3                   	retq   

000000000040095d <get_per_load>:
  40095d:	55                   	push   %rbp
  40095e:	48 89 e5             	mov    %rsp,%rbp
  400961:	48 83 ec 20          	sub    $0x20,%rsp
  400965:	b8 00 00 00 00       	mov    $0x0,%eax
  40096a:	e8 e1 fd ff ff       	callq  400750 <sched_getcpu@plt>
  40096f:	89 45 fc             	mov    %eax,-0x4(%rbp)
  400972:	48 8b 15 17 17 20 00 	mov    0x201717(%rip),%rdx        # 602090 <array_ptr>
  400979:	8b 05 1d 17 20 00    	mov    0x20171d(%rip),%eax        # 60209c <section_size>
  40097f:	0f af 45 fc          	imul   -0x4(%rbp),%eax
  400983:	48 98                	cltq   
  400985:	48 01 d0             	add    %rdx,%rax
  400988:	48 89 45 f0          	mov    %rax,-0x10(%rbp)
  40098c:	ba a8 20 a0 00       	mov    $0xa020a8,%edx
  400991:	b8 a0 20 a0 00       	mov    $0xa020a0,%eax
  400996:	48 29 c2             	sub    %rax,%rdx
  400999:	48 89 d0             	mov    %rdx,%rax
  40099c:	89 45 ec             	mov    %eax,-0x14(%rbp)
  40099f:	8b 45 ec             	mov    -0x14(%rbp),%eax
  4009a2:	48 63 d0             	movslq %eax,%rdx
  4009a5:	48 8b 45 f0          	mov    -0x10(%rbp),%rax
  4009a9:	48 01 d0             	add    %rdx,%rax
  4009ac:	48 89 45 e0          	mov    %rax,-0x20(%rbp)
  4009b0:	48 8b 45 e0          	mov    -0x20(%rbp),%rax
  4009b4:	c9                   	leaveq 
  4009b5:	c3                   	retq   

00000000004009b6 <print_array>:
  4009b6:	55                   	push   %rbp
  4009b7:	48 89 e5             	mov    %rsp,%rbp
  4009ba:	48 83 ec 30          	sub    $0x30,%rsp
  4009be:	bf 0a 00 00 00       	mov    $0xa,%edi
  4009c3:	e8 f8 fc ff ff       	callq  4006c0 <putchar@plt>
  4009c8:	c7 45 fc 00 00 00 00 	movl   $0x0,-0x4(%rbp)
  4009cf:	e9 8f 00 00 00       	jmpq   400a63 <print_array+0xad>
  4009d4:	48 8b 15 b5 16 20 00 	mov    0x2016b5(%rip),%rdx        # 602090 <array_ptr>
  4009db:	8b 05 bb 16 20 00    	mov    0x2016bb(%rip),%eax        # 60209c <section_size>
  4009e1:	0f af 45 fc          	imul   -0x4(%rbp),%eax
  4009e5:	48 98                	cltq   
  4009e7:	48 01 d0             	add    %rdx,%rax
  4009ea:	48 89 45 f0          	mov    %rax,-0x10(%rbp)
  4009ee:	ba a0 20 a0 00       	mov    $0xa020a0,%edx
  4009f3:	b8 a0 20 a0 00       	mov    $0xa020a0,%eax
  4009f8:	48 29 c2             	sub    %rax,%rdx
  4009fb:	48 89 d0             	mov    %rdx,%rax
  4009fe:	89 45 ec             	mov    %eax,-0x14(%rbp)
  400a01:	ba a8 20 a0 00       	mov    $0xa020a8,%edx
  400a06:	b8 a0 20 a0 00       	mov    $0xa020a0,%eax
  400a0b:	48 29 c2             	sub    %rax,%rdx
  400a0e:	48 89 d0             	mov    %rdx,%rax
  400a11:	89 45 e8             	mov    %eax,-0x18(%rbp)
  400a14:	8b 45 ec             	mov    -0x14(%rbp),%eax
  400a17:	48 63 d0             	movslq %eax,%rdx
  400a1a:	48 8b 45 f0          	mov    -0x10(%rbp),%rax
  400a1e:	48 01 d0             	add    %rdx,%rax
  400a21:	48 89 45 e0          	mov    %rax,-0x20(%rbp)
  400a25:	8b 45 e8             	mov    -0x18(%rbp),%eax
  400a28:	48 63 d0             	movslq %eax,%rdx
  400a2b:	48 8b 45 f0          	mov    -0x10(%rbp),%rax
  400a2f:	48 01 d0             	add    %rdx,%rax
  400a32:	48 89 45 d8          	mov    %rax,-0x28(%rbp)
  400a36:	48 8b 45 e0          	mov    -0x20(%rbp),%rax
  400a3a:	8b 70 04             	mov    0x4(%rax),%esi
  400a3d:	48 8b 45 d8          	mov    -0x28(%rbp),%rax
  400a41:	48 8b 08             	mov    (%rax),%rcx
  400a44:	48 8b 55 f0          	mov    -0x10(%rbp),%rdx
  400a48:	8b 45 fc             	mov    -0x4(%rbp),%eax
  400a4b:	41 89 f0             	mov    %esi,%r8d
  400a4e:	89 c6                	mov    %eax,%esi
  400a50:	bf b0 0c 40 00       	mov    $0x400cb0,%edi
  400a55:	b8 00 00 00 00       	mov    $0x0,%eax
  400a5a:	e8 81 fc ff ff       	callq  4006e0 <printf@plt>
  400a5f:	83 45 fc 01          	addl   $0x1,-0x4(%rbp)
  400a63:	8b 05 1f 16 20 00    	mov    0x20161f(%rip),%eax        # 602088 <cpu_total>
  400a69:	39 45 fc             	cmp    %eax,-0x4(%rbp)
  400a6c:	0f 8c 62 ff ff ff    	jl     4009d4 <print_array+0x1e>
  400a72:	c9                   	leaveq 
  400a73:	c3                   	retq   

0000000000400a74 <thread_func>:
  400a74:	55                   	push   %rbp
  400a75:	48 89 e5             	mov    %rsp,%rbp
  400a78:	48 83 ec 40          	sub    $0x40,%rsp
  400a7c:	48 89 7d c8          	mov    %rdi,-0x38(%rbp)
  400a80:	48 8b 45 c8          	mov    -0x38(%rbp),%rax
  400a84:	48 89 45 f0          	mov    %rax,-0x10(%rbp)
  400a88:	c7 45 fc 00 00 00 00 	movl   $0x0,-0x4(%rbp)
  400a8f:	e9 9f 00 00 00       	jmpq   400b33 <thread_func+0xbf>
  400a94:	b8 00 00 00 00       	mov    $0x0,%eax
  400a99:	e8 b2 fc ff ff       	callq  400750 <sched_getcpu@plt>
  400a9e:	89 45 ec             	mov    %eax,-0x14(%rbp)
  400aa1:	8b 55 ec             	mov    -0x14(%rbp),%edx
  400aa4:	48 8b 45 f0          	mov    -0x10(%rbp),%rax
  400aa8:	48 89 c6             	mov    %rax,%rsi
  400aab:	bf ed 0c 40 00       	mov    $0x400ced,%edi
  400ab0:	b8 00 00 00 00       	mov    $0x0,%eax
  400ab5:	e8 26 fc ff ff       	callq  4006e0 <printf@plt>
  400aba:	b8 00 00 00 00       	mov    $0x0,%eax
  400abf:	e8 99 fe ff ff       	callq  40095d <get_per_load>
  400ac4:	48 89 45 e0          	mov    %rax,-0x20(%rbp)
  400ac8:	48 8b 45 e0          	mov    -0x20(%rbp),%rax
  400acc:	48 89 c6             	mov    %rax,%rsi
  400acf:	bf ff 0c 40 00       	mov    $0x400cff,%edi
  400ad4:	b8 00 00 00 00       	mov    $0x0,%eax
  400ad9:	e8 02 fc ff ff       	callq  4006e0 <printf@plt>
  400ade:	48 8b 45 e0          	mov    -0x20(%rbp),%rax
  400ae2:	48 8b 00             	mov    (%rax),%rax
  400ae5:	48 8d 50 01          	lea    0x1(%rax),%rdx
  400ae9:	48 8b 45 e0          	mov    -0x20(%rbp),%rax
  400aed:	48 89 10             	mov    %rdx,(%rax)
  400af0:	b8 00 00 00 00       	mov    $0x0,%eax
  400af5:	e8 0a fe ff ff       	callq  400904 <get_per_cat>
  400afa:	48 89 45 d8          	mov    %rax,-0x28(%rbp)
  400afe:	48 8b 45 d8          	mov    -0x28(%rbp),%rax
  400b02:	48 89 c6             	mov    %rax,%rsi
  400b05:	bf 0c 0d 40 00       	mov    $0x400d0c,%edi
  400b0a:	b8 00 00 00 00       	mov    $0x0,%eax
  400b0f:	e8 cc fb ff ff       	callq  4006e0 <printf@plt>
  400b14:	48 8b 45 d8          	mov    -0x28(%rbp),%rax
  400b18:	8b 40 04             	mov    0x4(%rax),%eax
  400b1b:	8d 50 01             	lea    0x1(%rax),%edx
  400b1e:	48 8b 45 d8          	mov    -0x28(%rbp),%rax
  400b22:	89 50 04             	mov    %edx,0x4(%rax)
  400b25:	bf 01 00 00 00       	mov    $0x1,%edi
  400b2a:	e8 31 fc ff ff       	callq  400760 <sleep@plt>
  400b2f:	83 45 fc 01          	addl   $0x1,-0x4(%rbp)
  400b33:	83 7d fc 02          	cmpl   $0x2,-0x4(%rbp)
  400b37:	0f 8e 57 ff ff ff    	jle    400a94 <thread_func+0x20>
  400b3d:	c9                   	leaveq 
  400b3e:	c3                   	retq   

0000000000400b3f <main>:
  400b3f:	55                   	push   %rbp
  400b40:	48 89 e5             	mov    %rsp,%rbp
  400b43:	48 83 ec 10          	sub    $0x10,%rsp
  400b47:	bf 54 00 00 00       	mov    $0x54,%edi
  400b4c:	e8 df fb ff ff       	callq  400730 <sysconf@plt>
  400b51:	89 05 31 15 20 00    	mov    %eax,0x201531(%rip)        # 602088 <cpu_total>
  400b57:	b8 00 00 00 00       	mov    $0x0,%eax
  400b5c:	e8 fc fc ff ff       	callq  40085d <build_array>
  400b61:	48 8d 45 f8          	lea    -0x8(%rbp),%rax
  400b65:	b9 18 0d 40 00       	mov    $0x400d18,%ecx
  400b6a:	ba 74 0a 40 00       	mov    $0x400a74,%edx
  400b6f:	be 00 00 00 00       	mov    $0x0,%esi
  400b74:	48 89 c7             	mov    %rax,%rdi
  400b77:	e8 54 fb ff ff       	callq  4006d0 <pthread_create@plt>
  400b7c:	48 8d 45 f0          	lea    -0x10(%rbp),%rax
  400b80:	b9 21 0d 40 00       	mov    $0x400d21,%ecx
  400b85:	ba 74 0a 40 00       	mov    $0x400a74,%edx
  400b8a:	be 00 00 00 00       	mov    $0x0,%esi
  400b8f:	48 89 c7             	mov    %rax,%rdi
  400b92:	e8 39 fb ff ff       	callq  4006d0 <pthread_create@plt>
  400b97:	48 8b 45 f8          	mov    -0x8(%rbp),%rax
  400b9b:	be 00 00 00 00       	mov    $0x0,%esi
  400ba0:	48 89 c7             	mov    %rax,%rdi
  400ba3:	e8 98 fb ff ff       	callq  400740 <pthread_join@plt>
  400ba8:	48 8b 45 f0          	mov    -0x10(%rbp),%rax
  400bac:	be 00 00 00 00       	mov    $0x0,%esi
  400bb1:	48 89 c7             	mov    %rax,%rdi
  400bb4:	e8 87 fb ff ff       	callq  400740 <pthread_join@plt>
  400bb9:	b8 00 00 00 00       	mov    $0x0,%eax
  400bbe:	e8 f3 fd ff ff       	callq  4009b6 <print_array>
  400bc3:	48 8b 05 c6 14 20 00 	mov    0x2014c6(%rip),%rax        # 602090 <array_ptr>
  400bca:	48 89 c7             	mov    %rax,%rdi
  400bcd:	e8 de fa ff ff       	callq  4006b0 <free@plt>
  400bd2:	b8 00 00 00 00       	mov    $0x0,%eax
  400bd7:	c9                   	leaveq 
  400bd8:	c3                   	retq   
  400bd9:	0f 1f 80 00 00 00 00 	nopl   0x0(%rax)

0000000000400be0 <__libc_csu_init>:
  400be0:	41 57                	push   %r15
  400be2:	41 89 ff             	mov    %edi,%r15d
  400be5:	41 56                	push   %r14
  400be7:	49 89 f6             	mov    %rsi,%r14
  400bea:	41 55                	push   %r13
  400bec:	49 89 d5             	mov    %rdx,%r13
  400bef:	41 54                	push   %r12
  400bf1:	4c 8d 25 08 12 20 00 	lea    0x201208(%rip),%r12        # 601e00 <__frame_dummy_init_array_entry>
  400bf8:	55                   	push   %rbp
  400bf9:	48 8d 2d 08 12 20 00 	lea    0x201208(%rip),%rbp        # 601e08 <__init_array_end>
  400c00:	53                   	push   %rbx
  400c01:	4c 29 e5             	sub    %r12,%rbp
  400c04:	31 db                	xor    %ebx,%ebx
  400c06:	48 c1 fd 03          	sar    $0x3,%rbp
  400c0a:	48 83 ec 08          	sub    $0x8,%rsp
  400c0e:	e8 65 fa ff ff       	callq  400678 <_init>
  400c13:	48 85 ed             	test   %rbp,%rbp
  400c16:	74 1e                	je     400c36 <__libc_csu_init+0x56>
  400c18:	0f 1f 84 00 00 00 00 	nopl   0x0(%rax,%rax,1)
  400c1f:	00 
  400c20:	4c 89 ea             	mov    %r13,%rdx
  400c23:	4c 89 f6             	mov    %r14,%rsi
  400c26:	44 89 ff             	mov    %r15d,%edi
  400c29:	41 ff 14 dc          	callq  *(%r12,%rbx,8)
  400c2d:	48 83 c3 01          	add    $0x1,%rbx
  400c31:	48 39 eb             	cmp    %rbp,%rbx
  400c34:	75 ea                	jne    400c20 <__libc_csu_init+0x40>
  400c36:	48 83 c4 08          	add    $0x8,%rsp
  400c3a:	5b                   	pop    %rbx
  400c3b:	5d                   	pop    %rbp
  400c3c:	41 5c                	pop    %r12
  400c3e:	41 5d                	pop    %r13
  400c40:	41 5e                	pop    %r14
  400c42:	41 5f                	pop    %r15
  400c44:	c3                   	retq   
  400c45:	90                   	nop
  400c46:	66 2e 0f 1f 84 00 00 	nopw   %cs:0x0(%rax,%rax,1)
  400c4d:	00 00 00 

0000000000400c50 <__libc_csu_fini>:
  400c50:	f3 c3                	repz retq 

Disassembly of section .fini:

0000000000400c54 <_fini>:
  400c54:	48 83 ec 08          	sub    $0x8,%rsp
  400c58:	48 83 c4 08          	add    $0x8,%rsp
  400c5c:	c3                   	retq   

Disassembly of section section_my_percpu:

0000000000a020a0 <per_begin>:
	...

0000000000a020a8 <per_load>:
	...
