	.file	"param.c"
	.text
	.globl	func_hello
	.type	func_hello, @function
func_hello:
.LFB0:
	.cfi_startproc
	pushq	%rbp
	.cfi_def_cfa_offset 16
	.cfi_offset 6, -16
	movq	%rsp, %rbp
	.cfi_def_cfa_register 6
	movl	%edi, -20(%rbp)
	movl	-20(%rbp), %eax
	addl	$3, %eax
	movl	%eax, -4(%rbp)
	movl	-4(%rbp), %eax
	popq	%rbp
	.cfi_def_cfa 7, 8
	ret
	.cfi_endproc
.LFE0:
	.size	func_hello, .-func_hello
	.globl	func_no_call
	.type	func_no_call, @function
func_no_call:
.LFB1:
	.cfi_startproc
	pushq	%rbp
	.cfi_def_cfa_offset 16
	.cfi_offset 6, -16
	movq	%rsp, %rbp
	.cfi_def_cfa_register 6
	movl	%edi, -20(%rbp)
	movl	-20(%rbp), %eax
	subl	$111, %eax
	movl	%eax, -4(%rbp)
	movl	-4(%rbp), %eax
	popq	%rbp
	.cfi_def_cfa 7, 8
	ret
	.cfi_endproc
.LFE1:
	.size	func_no_call, .-func_no_call
	.globl	func_with_call
	.type	func_with_call, @function
func_with_call:
.LFB2:
	.cfi_startproc
	pushq	%rbp
	.cfi_def_cfa_offset 16
	.cfi_offset 6, -16
	movq	%rsp, %rbp
	.cfi_def_cfa_register 6
	subq	$24, %rsp
	movl	%edi, -20(%rbp)
	movl	$555, %edi
	call	func_hello
	movl	-20(%rbp), %eax
	subl	$111, %eax
	movl	%eax, -4(%rbp)
	movl	-4(%rbp), %eax
	leave
	.cfi_def_cfa 7, 8
	ret
	.cfi_endproc
.LFE2:
	.size	func_with_call, .-func_with_call
	.ident	"GCC: (GNU) 4.8.5 20150623 (Red Hat 4.8.5-44)"
	.section	.note.GNU-stack,"",@progbits
