
main:     file format elf64-x86-64


Disassembly of section .init:

0000000000400450 <_init>:
  400450:	48 83 ec 08          	sub    $0x8,%rsp
  400454:	48 8b 05 9d 0b 20 00 	mov    0x200b9d(%rip),%rax        # 600ff8 <__gmon_start__>
  40045b:	48 85 c0             	test   %rax,%rax
  40045e:	74 05                	je     400465 <_init+0x15>
  400460:	e8 4b 00 00 00       	callq  4004b0 <__gmon_start__@plt>
  400465:	48 83 c4 08          	add    $0x8,%rsp
  400469:	c3                   	retq   

Disassembly of section .plt:

0000000000400470 <.plt>:
  400470:	ff 35 92 0b 20 00    	pushq  0x200b92(%rip)        # 601008 <_GLOBAL_OFFSET_TABLE_+0x8>
  400476:	ff 25 94 0b 20 00    	jmpq   *0x200b94(%rip)        # 601010 <_GLOBAL_OFFSET_TABLE_+0x10>
  40047c:	0f 1f 40 00          	nopl   0x0(%rax)

0000000000400480 <puts@plt>:
  400480:	ff 25 92 0b 20 00    	jmpq   *0x200b92(%rip)        # 601018 <puts@GLIBC_2.2.5>
  400486:	68 00 00 00 00       	pushq  $0x0
  40048b:	e9 e0 ff ff ff       	jmpq   400470 <.plt>

0000000000400490 <printf@plt>:
  400490:	ff 25 8a 0b 20 00    	jmpq   *0x200b8a(%rip)        # 601020 <printf@GLIBC_2.2.5>
  400496:	68 01 00 00 00       	pushq  $0x1
  40049b:	e9 d0 ff ff ff       	jmpq   400470 <.plt>

00000000004004a0 <__libc_start_main@plt>:
  4004a0:	ff 25 82 0b 20 00    	jmpq   *0x200b82(%rip)        # 601028 <__libc_start_main@GLIBC_2.2.5>
  4004a6:	68 02 00 00 00       	pushq  $0x2
  4004ab:	e9 c0 ff ff ff       	jmpq   400470 <.plt>

00000000004004b0 <__gmon_start__@plt>:
  4004b0:	ff 25 7a 0b 20 00    	jmpq   *0x200b7a(%rip)        # 601030 <__gmon_start__>
  4004b6:	68 03 00 00 00       	pushq  $0x3
  4004bb:	e9 b0 ff ff ff       	jmpq   400470 <.plt>

00000000004004c0 <sleep@plt>:
  4004c0:	ff 25 72 0b 20 00    	jmpq   *0x200b72(%rip)        # 601038 <sleep@GLIBC_2.2.5>
  4004c6:	68 04 00 00 00       	pushq  $0x4
  4004cb:	e9 a0 ff ff ff       	jmpq   400470 <.plt>

Disassembly of section .text:

00000000004004d0 <_start>:
  4004d0:	31 ed                	xor    %ebp,%ebp
  4004d2:	49 89 d1             	mov    %rdx,%r9
  4004d5:	5e                   	pop    %rsi
  4004d6:	48 89 e2             	mov    %rsp,%rdx
  4004d9:	48 83 e4 f0          	and    $0xfffffffffffffff0,%rsp
  4004dd:	50                   	push   %rax
  4004de:	54                   	push   %rsp
  4004df:	49 c7 c0 40 07 40 00 	mov    $0x400740,%r8
  4004e6:	48 c7 c1 d0 06 40 00 	mov    $0x4006d0,%rcx
  4004ed:	48 c7 c7 1b 06 40 00 	mov    $0x40061b,%rdi
  4004f4:	e8 a7 ff ff ff       	callq  4004a0 <__libc_start_main@plt>
  4004f9:	f4                   	hlt    
  4004fa:	66 0f 1f 44 00 00    	nopw   0x0(%rax,%rax,1)

0000000000400500 <deregister_tm_clones>:
  400500:	b8 6f 10 60 00       	mov    $0x60106f,%eax
  400505:	55                   	push   %rbp
  400506:	48 2d 68 10 60 00    	sub    $0x601068,%rax
  40050c:	48 83 f8 0e          	cmp    $0xe,%rax
  400510:	48 89 e5             	mov    %rsp,%rbp
  400513:	77 02                	ja     400517 <deregister_tm_clones+0x17>
  400515:	5d                   	pop    %rbp
  400516:	c3                   	retq   
  400517:	b8 00 00 00 00       	mov    $0x0,%eax
  40051c:	48 85 c0             	test   %rax,%rax
  40051f:	74 f4                	je     400515 <deregister_tm_clones+0x15>
  400521:	5d                   	pop    %rbp
  400522:	bf 68 10 60 00       	mov    $0x601068,%edi
  400527:	ff e0                	jmpq   *%rax
  400529:	0f 1f 80 00 00 00 00 	nopl   0x0(%rax)

0000000000400530 <register_tm_clones>:
  400530:	b8 68 10 60 00       	mov    $0x601068,%eax
  400535:	55                   	push   %rbp
  400536:	48 2d 68 10 60 00    	sub    $0x601068,%rax
  40053c:	48 c1 f8 03          	sar    $0x3,%rax
  400540:	48 89 e5             	mov    %rsp,%rbp
  400543:	48 89 c2             	mov    %rax,%rdx
  400546:	48 c1 ea 3f          	shr    $0x3f,%rdx
  40054a:	48 01 d0             	add    %rdx,%rax
  40054d:	48 d1 f8             	sar    %rax
  400550:	75 02                	jne    400554 <register_tm_clones+0x24>
  400552:	5d                   	pop    %rbp
  400553:	c3                   	retq   
  400554:	ba 00 00 00 00       	mov    $0x0,%edx
  400559:	48 85 d2             	test   %rdx,%rdx
  40055c:	74 f4                	je     400552 <register_tm_clones+0x22>
  40055e:	5d                   	pop    %rbp
  40055f:	48 89 c6             	mov    %rax,%rsi
  400562:	bf 68 10 60 00       	mov    $0x601068,%edi
  400567:	ff e2                	jmpq   *%rdx
  400569:	0f 1f 80 00 00 00 00 	nopl   0x0(%rax)

0000000000400570 <__do_global_dtors_aux>:
  400570:	80 3d ed 0a 20 00 00 	cmpb   $0x0,0x200aed(%rip)        # 601064 <_edata>
  400577:	75 11                	jne    40058a <__do_global_dtors_aux+0x1a>
  400579:	55                   	push   %rbp
  40057a:	48 89 e5             	mov    %rsp,%rbp
  40057d:	e8 7e ff ff ff       	callq  400500 <deregister_tm_clones>
  400582:	5d                   	pop    %rbp
  400583:	c6 05 da 0a 20 00 01 	movb   $0x1,0x200ada(%rip)        # 601064 <_edata>
  40058a:	f3 c3                	repz retq 
  40058c:	0f 1f 40 00          	nopl   0x0(%rax)

0000000000400590 <frame_dummy>:
  400590:	48 83 3d 88 08 20 00 	cmpq   $0x0,0x200888(%rip)        # 600e20 <__JCR_END__>
  400597:	00 
  400598:	74 1e                	je     4005b8 <frame_dummy+0x28>
  40059a:	b8 00 00 00 00       	mov    $0x0,%eax
  40059f:	48 85 c0             	test   %rax,%rax
  4005a2:	74 14                	je     4005b8 <frame_dummy+0x28>
  4005a4:	55                   	push   %rbp
  4005a5:	bf 20 0e 60 00       	mov    $0x600e20,%edi
  4005aa:	48 89 e5             	mov    %rsp,%rbp
  4005ad:	ff d0                	callq  *%rax
  4005af:	5d                   	pop    %rbp
  4005b0:	e9 7b ff ff ff       	jmpq   400530 <register_tm_clones>
  4005b5:	0f 1f 00             	nopl   (%rax)
  4005b8:	e9 73 ff ff ff       	jmpq   400530 <register_tm_clones>

00000000004005bd <main_print_param>:
  4005bd:	55                   	push   %rbp
  4005be:	48 89 e5             	mov    %rsp,%rbp
  4005c1:	48 83 ec 20          	sub    $0x20,%rsp
  4005c5:	48 89 7d f8          	mov    %rdi,-0x8(%rbp)
  4005c9:	48 89 75 f0          	mov    %rsi,-0x10(%rbp)
  4005cd:	89 55 ec             	mov    %edx,-0x14(%rbp)
  4005d0:	8b 4d ec             	mov    -0x14(%rbp),%ecx
  4005d3:	48 8b 55 f0          	mov    -0x10(%rbp),%rdx
  4005d7:	48 8b 45 f8          	mov    -0x8(%rbp),%rax
  4005db:	48 89 c6             	mov    %rax,%rsi
  4005de:	bf 60 07 40 00       	mov    $0x400760,%edi
  4005e3:	b8 00 00 00 00       	mov    $0x0,%eax
  4005e8:	e8 a3 fe ff ff       	callq  400490 <printf@plt>
  4005ed:	c9                   	leaveq 
  4005ee:	c3                   	retq   

00000000004005ef <main_print_func>:
  4005ef:	55                   	push   %rbp
  4005f0:	48 89 e5             	mov    %rsp,%rbp
  4005f3:	48 83 ec 10          	sub    $0x10,%rsp
  4005f7:	48 89 7d f8          	mov    %rdi,-0x8(%rbp)
  4005fb:	48 89 75 f0          	mov    %rsi,-0x10(%rbp)
  4005ff:	48 8b 55 f0          	mov    -0x10(%rbp),%rdx
  400603:	48 8b 45 f8          	mov    -0x8(%rbp),%rax
  400607:	48 89 c6             	mov    %rax,%rsi
  40060a:	bf 80 07 40 00       	mov    $0x400780,%edi
  40060f:	b8 00 00 00 00       	mov    $0x0,%eax
  400614:	e8 77 fe ff ff       	callq  400490 <printf@plt>
  400619:	c9                   	leaveq 
  40061a:	c3                   	retq   

000000000040061b <main>:
  40061b:	55                   	push   %rbp
  40061c:	48 89 e5             	mov    %rsp,%rbp
  40061f:	c7 05 1b 0a 20 00 f4 	movl   $0xf1f2f3f4,0x200a1b(%rip)        # 601044 <main_int>
  400626:	f3 f2 f1 
  400629:	bf 03 00 00 00       	mov    $0x3,%edi
  40062e:	e8 71 00 00 00       	callq  4006a4 <cat_run>
  400633:	bf 95 07 40 00       	mov    $0x400795,%edi
  400638:	e8 43 fe ff ff       	callq  400480 <puts@plt>
  40063d:	8b 05 1d 0a 20 00    	mov    0x200a1d(%rip),%eax        # 601060 <cat_speed>
  400643:	89 c2                	mov    %eax,%edx
  400645:	be 60 10 60 00       	mov    $0x601060,%esi
  40064a:	bf ae 07 40 00       	mov    $0x4007ae,%edi
  40064f:	e8 69 ff ff ff       	callq  4005bd <main_print_param>
  400654:	8b 05 ea 09 20 00    	mov    0x2009ea(%rip),%eax        # 601044 <main_int>
  40065a:	89 c2                	mov    %eax,%edx
  40065c:	be 44 10 60 00       	mov    $0x601044,%esi
  400661:	bf b8 07 40 00       	mov    $0x4007b8,%edi
  400666:	e8 52 ff ff ff       	callq  4005bd <main_print_param>
  40066b:	bf c1 07 40 00       	mov    $0x4007c1,%edi
  400670:	e8 0b fe ff ff       	callq  400480 <puts@plt>
  400675:	be a4 06 40 00       	mov    $0x4006a4,%esi
  40067a:	bf d0 07 40 00       	mov    $0x4007d0,%edi
  40067f:	e8 6b ff ff ff       	callq  4005ef <main_print_func>
  400684:	be 1b 06 40 00       	mov    $0x40061b,%esi
  400689:	bf d8 07 40 00       	mov    $0x4007d8,%edi
  40068e:	e8 5c ff ff ff       	callq  4005ef <main_print_func>
  400693:	bf 90 5f 01 00       	mov    $0x15f90,%edi
  400698:	e8 23 fe ff ff       	callq  4004c0 <sleep@plt>
  40069d:	b8 00 00 00 00       	mov    $0x0,%eax
  4006a2:	5d                   	pop    %rbp
  4006a3:	c3                   	retq   

00000000004006a4 <cat_run>:
  4006a4:	55                   	push   %rbp
  4006a5:	48 89 e5             	mov    %rsp,%rbp
  4006a8:	48 83 ec 10          	sub    $0x10,%rsp
  4006ac:	89 7d fc             	mov    %edi,-0x4(%rbp)
  4006af:	8b 05 ab 09 20 00    	mov    0x2009ab(%rip),%eax        # 601060 <cat_speed>
  4006b5:	89 c2                	mov    %eax,%edx
  4006b7:	be 50 10 60 00       	mov    $0x601050,%esi
  4006bc:	bf e0 07 40 00       	mov    $0x4007e0,%edi
  4006c1:	b8 00 00 00 00       	mov    $0x0,%eax
  4006c6:	e8 c5 fd ff ff       	callq  400490 <printf@plt>
  4006cb:	c9                   	leaveq 
  4006cc:	c3                   	retq   
  4006cd:	0f 1f 00             	nopl   (%rax)

00000000004006d0 <__libc_csu_init>:
  4006d0:	41 57                	push   %r15
  4006d2:	41 89 ff             	mov    %edi,%r15d
  4006d5:	41 56                	push   %r14
  4006d7:	49 89 f6             	mov    %rsi,%r14
  4006da:	41 55                	push   %r13
  4006dc:	49 89 d5             	mov    %rdx,%r13
  4006df:	41 54                	push   %r12
  4006e1:	4c 8d 25 28 07 20 00 	lea    0x200728(%rip),%r12        # 600e10 <__frame_dummy_init_array_entry>
  4006e8:	55                   	push   %rbp
  4006e9:	48 8d 2d 28 07 20 00 	lea    0x200728(%rip),%rbp        # 600e18 <__init_array_end>
  4006f0:	53                   	push   %rbx
  4006f1:	4c 29 e5             	sub    %r12,%rbp
  4006f4:	31 db                	xor    %ebx,%ebx
  4006f6:	48 c1 fd 03          	sar    $0x3,%rbp
  4006fa:	48 83 ec 08          	sub    $0x8,%rsp
  4006fe:	e8 4d fd ff ff       	callq  400450 <_init>
  400703:	48 85 ed             	test   %rbp,%rbp
  400706:	74 1e                	je     400726 <__libc_csu_init+0x56>
  400708:	0f 1f 84 00 00 00 00 	nopl   0x0(%rax,%rax,1)
  40070f:	00 
  400710:	4c 89 ea             	mov    %r13,%rdx
  400713:	4c 89 f6             	mov    %r14,%rsi
  400716:	44 89 ff             	mov    %r15d,%edi
  400719:	41 ff 14 dc          	callq  *(%r12,%rbx,8)
  40071d:	48 83 c3 01          	add    $0x1,%rbx
  400721:	48 39 eb             	cmp    %rbp,%rbx
  400724:	75 ea                	jne    400710 <__libc_csu_init+0x40>
  400726:	48 83 c4 08          	add    $0x8,%rsp
  40072a:	5b                   	pop    %rbx
  40072b:	5d                   	pop    %rbp
  40072c:	41 5c                	pop    %r12
  40072e:	41 5d                	pop    %r13
  400730:	41 5e                	pop    %r14
  400732:	41 5f                	pop    %r15
  400734:	c3                   	retq   
  400735:	90                   	nop
  400736:	66 2e 0f 1f 84 00 00 	nopw   %cs:0x0(%rax,%rax,1)
  40073d:	00 00 00 

0000000000400740 <__libc_csu_fini>:
  400740:	f3 c3                	repz retq 

Disassembly of section .fini:

0000000000400744 <_fini>:
  400744:	48 83 ec 08          	sub    $0x8,%rsp
  400748:	48 83 c4 08          	add    $0x8,%rsp
  40074c:	c3                   	retq   
