
main:     file format elf64-x86-64


Disassembly of section .init:

0000000000400488 <_init>:
  400488:	48 83 ec 08          	sub    $0x8,%rsp
  40048c:	48 8b 05 65 0b 20 00 	mov    0x200b65(%rip),%rax        # 600ff8 <__gmon_start__>
  400493:	48 85 c0             	test   %rax,%rax
  400496:	74 05                	je     40049d <_init+0x15>
  400498:	e8 53 00 00 00       	callq  4004f0 <__gmon_start__@plt>
  40049d:	48 83 c4 08          	add    $0x8,%rsp
  4004a1:	c3                   	retq   

Disassembly of section .plt:

00000000004004b0 <.plt>:
  4004b0:	ff 35 52 0b 20 00    	pushq  0x200b52(%rip)        # 601008 <_GLOBAL_OFFSET_TABLE_+0x8>
  4004b6:	ff 25 54 0b 20 00    	jmpq   *0x200b54(%rip)        # 601010 <_GLOBAL_OFFSET_TABLE_+0x10>
  4004bc:	0f 1f 40 00          	nopl   0x0(%rax)

00000000004004c0 <puts@plt>:
  4004c0:	ff 25 52 0b 20 00    	jmpq   *0x200b52(%rip)        # 601018 <puts@GLIBC_2.2.5>
  4004c6:	68 00 00 00 00       	pushq  $0x0
  4004cb:	e9 e0 ff ff ff       	jmpq   4004b0 <.plt>

00000000004004d0 <printf@plt>:
  4004d0:	ff 25 4a 0b 20 00    	jmpq   *0x200b4a(%rip)        # 601020 <printf@GLIBC_2.2.5>
  4004d6:	68 01 00 00 00       	pushq  $0x1
  4004db:	e9 d0 ff ff ff       	jmpq   4004b0 <.plt>

00000000004004e0 <__libc_start_main@plt>:
  4004e0:	ff 25 42 0b 20 00    	jmpq   *0x200b42(%rip)        # 601028 <__libc_start_main@GLIBC_2.2.5>
  4004e6:	68 02 00 00 00       	pushq  $0x2
  4004eb:	e9 c0 ff ff ff       	jmpq   4004b0 <.plt>

00000000004004f0 <__gmon_start__@plt>:
  4004f0:	ff 25 3a 0b 20 00    	jmpq   *0x200b3a(%rip)        # 601030 <__gmon_start__>
  4004f6:	68 03 00 00 00       	pushq  $0x3
  4004fb:	e9 b0 ff ff ff       	jmpq   4004b0 <.plt>

Disassembly of section .text:

0000000000400500 <_start>:
  400500:	31 ed                	xor    %ebp,%ebp
  400502:	49 89 d1             	mov    %rdx,%r9
  400505:	5e                   	pop    %rsi
  400506:	48 89 e2             	mov    %rsp,%rdx
  400509:	48 83 e4 f0          	and    $0xfffffffffffffff0,%rsp
  40050d:	50                   	push   %rax
  40050e:	54                   	push   %rsp
  40050f:	49 c7 c0 60 07 40 00 	mov    $0x400760,%r8
  400516:	48 c7 c1 f0 06 40 00 	mov    $0x4006f0,%rcx
  40051d:	48 c7 c7 19 06 40 00 	mov    $0x400619,%rdi
  400524:	e8 b7 ff ff ff       	callq  4004e0 <__libc_start_main@plt>
  400529:	f4                   	hlt    
  40052a:	66 0f 1f 44 00 00    	nopw   0x0(%rax,%rax,1)

0000000000400530 <deregister_tm_clones>:
  400530:	b8 47 10 60 00       	mov    $0x601047,%eax
  400535:	55                   	push   %rbp
  400536:	48 2d 40 10 60 00    	sub    $0x601040,%rax
  40053c:	48 83 f8 0e          	cmp    $0xe,%rax
  400540:	48 89 e5             	mov    %rsp,%rbp
  400543:	77 02                	ja     400547 <deregister_tm_clones+0x17>
  400545:	5d                   	pop    %rbp
  400546:	c3                   	retq   
  400547:	b8 00 00 00 00       	mov    $0x0,%eax
  40054c:	48 85 c0             	test   %rax,%rax
  40054f:	74 f4                	je     400545 <deregister_tm_clones+0x15>
  400551:	5d                   	pop    %rbp
  400552:	bf 40 10 60 00       	mov    $0x601040,%edi
  400557:	ff e0                	jmpq   *%rax
  400559:	0f 1f 80 00 00 00 00 	nopl   0x0(%rax)

0000000000400560 <register_tm_clones>:
  400560:	b8 40 10 60 00       	mov    $0x601040,%eax
  400565:	55                   	push   %rbp
  400566:	48 2d 40 10 60 00    	sub    $0x601040,%rax
  40056c:	48 c1 f8 03          	sar    $0x3,%rax
  400570:	48 89 e5             	mov    %rsp,%rbp
  400573:	48 89 c2             	mov    %rax,%rdx
  400576:	48 c1 ea 3f          	shr    $0x3f,%rdx
  40057a:	48 01 d0             	add    %rdx,%rax
  40057d:	48 d1 f8             	sar    %rax
  400580:	75 02                	jne    400584 <register_tm_clones+0x24>
  400582:	5d                   	pop    %rbp
  400583:	c3                   	retq   
  400584:	ba 00 00 00 00       	mov    $0x0,%edx
  400589:	48 85 d2             	test   %rdx,%rdx
  40058c:	74 f4                	je     400582 <register_tm_clones+0x22>
  40058e:	5d                   	pop    %rbp
  40058f:	48 89 c6             	mov    %rax,%rsi
  400592:	bf 40 10 60 00       	mov    $0x601040,%edi
  400597:	ff e2                	jmpq   *%rdx
  400599:	0f 1f 80 00 00 00 00 	nopl   0x0(%rax)

00000000004005a0 <__do_global_dtors_aux>:
  4005a0:	80 3d 99 0a 20 00 00 	cmpb   $0x0,0x200a99(%rip)        # 601040 <__TMC_END__>
  4005a7:	75 11                	jne    4005ba <__do_global_dtors_aux+0x1a>
  4005a9:	55                   	push   %rbp
  4005aa:	48 89 e5             	mov    %rsp,%rbp
  4005ad:	e8 7e ff ff ff       	callq  400530 <deregister_tm_clones>
  4005b2:	5d                   	pop    %rbp
  4005b3:	c6 05 86 0a 20 00 01 	movb   $0x1,0x200a86(%rip)        # 601040 <__TMC_END__>
  4005ba:	f3 c3                	repz retq 
  4005bc:	0f 1f 40 00          	nopl   0x0(%rax)

00000000004005c0 <frame_dummy>:
  4005c0:	48 83 3d 58 08 20 00 	cmpq   $0x0,0x200858(%rip)        # 600e20 <__JCR_END__>
  4005c7:	00 
  4005c8:	74 1e                	je     4005e8 <frame_dummy+0x28>
  4005ca:	b8 00 00 00 00       	mov    $0x0,%eax
  4005cf:	48 85 c0             	test   %rax,%rax
  4005d2:	74 14                	je     4005e8 <frame_dummy+0x28>
  4005d4:	55                   	push   %rbp
  4005d5:	bf 20 0e 60 00       	mov    $0x600e20,%edi
  4005da:	48 89 e5             	mov    %rsp,%rbp
  4005dd:	ff d0                	callq  *%rax
  4005df:	5d                   	pop    %rbp
  4005e0:	e9 7b ff ff ff       	jmpq   400560 <register_tm_clones>
  4005e5:	0f 1f 00             	nopl   (%rax)
  4005e8:	e9 73 ff ff ff       	jmpq   400560 <register_tm_clones>

00000000004005ed <func_print>:
  4005ed:	55                   	push   %rbp
  4005ee:	48 89 e5             	mov    %rsp,%rbp
  4005f1:	48 83 ec 10          	sub    $0x10,%rsp
  4005f5:	48 89 7d f8          	mov    %rdi,-0x8(%rbp)
  4005f9:	48 89 75 f0          	mov    %rsi,-0x10(%rbp)
  4005fd:	48 8b 55 f0          	mov    -0x10(%rbp),%rdx
  400601:	48 8b 45 f8          	mov    -0x8(%rbp),%rax
  400605:	48 89 c6             	mov    %rax,%rsi
  400608:	bf 80 07 40 00       	mov    $0x400780,%edi
  40060d:	b8 00 00 00 00       	mov    $0x0,%eax
  400612:	e8 b9 fe ff ff       	callq  4004d0 <printf@plt>
  400617:	c9                   	leaveq 
  400618:	c3                   	retq   

0000000000400619 <main>:
  400619:	55                   	push   %rbp
  40061a:	48 89 e5             	mov    %rsp,%rbp
  40061d:	bf 97 07 40 00       	mov    $0x400797,%edi
  400622:	e8 99 fe ff ff       	callq  4004c0 <puts@plt>
  400627:	be 3c 10 60 00       	mov    $0x60103c,%esi
  40062c:	bf b5 07 40 00       	mov    $0x4007b5,%edi
  400631:	e8 b7 ff ff ff       	callq  4005ed <func_print>
  400636:	bf c0 07 40 00       	mov    $0x4007c0,%edi
  40063b:	e8 80 fe ff ff       	callq  4004c0 <puts@plt>
  400640:	be 08 00 00 07       	mov    $0x7000008,%esi
  400645:	bf dd 07 40 00       	mov    $0x4007dd,%edi
  40064a:	e8 9e ff ff ff       	callq  4005ed <func_print>
  40064f:	be 10 00 00 07       	mov    $0x7000010,%esi
  400654:	bf e7 07 40 00       	mov    $0x4007e7,%edi
  400659:	e8 8f ff ff ff       	callq  4005ed <func_print>
  40065e:	be 18 00 00 07       	mov    $0x7000018,%esi
  400663:	bf f2 07 40 00       	mov    $0x4007f2,%edi
  400668:	e8 80 ff ff ff       	callq  4005ed <func_print>
  40066d:	be 1c 00 00 07       	mov    $0x700001c,%esi
  400672:	bf fc 07 40 00       	mov    $0x4007fc,%edi
  400677:	e8 71 ff ff ff       	callq  4005ed <func_print>
  40067c:	bf 05 08 40 00       	mov    $0x400805,%edi
  400681:	e8 3a fe ff ff       	callq  4004c0 <puts@plt>
  400686:	be 08 00 00 07       	mov    $0x7000008,%esi
  40068b:	bf 17 08 40 00       	mov    $0x400817,%edi
  400690:	e8 58 ff ff ff       	callq  4005ed <func_print>
  400695:	be 18 00 00 07       	mov    $0x7000018,%esi
  40069a:	bf 26 08 40 00       	mov    $0x400826,%edi
  40069f:	e8 49 ff ff ff       	callq  4005ed <func_print>
  4006a4:	be 1c 00 00 07       	mov    $0x700001c,%esi
  4006a9:	bf 35 08 40 00       	mov    $0x400835,%edi
  4006ae:	e8 3a ff ff ff       	callq  4005ed <func_print>
  4006b3:	bf 42 08 40 00       	mov    $0x400842,%edi
  4006b8:	e8 03 fe ff ff       	callq  4004c0 <puts@plt>
  4006bd:	be ed 05 40 00       	mov    $0x4005ed,%esi
  4006c2:	bf 5f 08 40 00       	mov    $0x40085f,%edi
  4006c7:	e8 21 ff ff ff       	callq  4005ed <func_print>
  4006cc:	bf 6a 08 40 00       	mov    $0x40086a,%edi
  4006d1:	e8 ea fd ff ff       	callq  4004c0 <puts@plt>
  4006d6:	be 03 00 00 03       	mov    $0x3000003,%esi
  4006db:	bf 86 08 40 00       	mov    $0x400886,%edi
  4006e0:	e8 08 ff ff ff       	callq  4005ed <func_print>
  4006e5:	b8 00 00 00 00       	mov    $0x0,%eax
  4006ea:	5d                   	pop    %rbp
  4006eb:	c3                   	retq   
  4006ec:	0f 1f 40 00          	nopl   0x0(%rax)

00000000004006f0 <__libc_csu_init>:
  4006f0:	41 57                	push   %r15
  4006f2:	41 89 ff             	mov    %edi,%r15d
  4006f5:	41 56                	push   %r14
  4006f7:	49 89 f6             	mov    %rsi,%r14
  4006fa:	41 55                	push   %r13
  4006fc:	49 89 d5             	mov    %rdx,%r13
  4006ff:	41 54                	push   %r12
  400701:	4c 8d 25 08 07 20 00 	lea    0x200708(%rip),%r12        # 600e10 <__frame_dummy_init_array_entry>
  400708:	55                   	push   %rbp
  400709:	48 8d 2d 08 07 20 00 	lea    0x200708(%rip),%rbp        # 600e18 <__init_array_end>
  400710:	53                   	push   %rbx
  400711:	4c 29 e5             	sub    %r12,%rbp
  400714:	31 db                	xor    %ebx,%ebx
  400716:	48 c1 fd 03          	sar    $0x3,%rbp
  40071a:	48 83 ec 08          	sub    $0x8,%rsp
  40071e:	e8 65 fd ff ff       	callq  400488 <_init>
  400723:	48 85 ed             	test   %rbp,%rbp
  400726:	74 1e                	je     400746 <__libc_csu_init+0x56>
  400728:	0f 1f 84 00 00 00 00 	nopl   0x0(%rax,%rax,1)
  40072f:	00 
  400730:	4c 89 ea             	mov    %r13,%rdx
  400733:	4c 89 f6             	mov    %r14,%rsi
  400736:	44 89 ff             	mov    %r15d,%edi
  400739:	41 ff 14 dc          	callq  *(%r12,%rbx,8)
  40073d:	48 83 c3 01          	add    $0x1,%rbx
  400741:	48 39 eb             	cmp    %rbp,%rbx
  400744:	75 ea                	jne    400730 <__libc_csu_init+0x40>
  400746:	48 83 c4 08          	add    $0x8,%rsp
  40074a:	5b                   	pop    %rbx
  40074b:	5d                   	pop    %rbp
  40074c:	41 5c                	pop    %r12
  40074e:	41 5d                	pop    %r13
  400750:	41 5e                	pop    %r14
  400752:	41 5f                	pop    %r15
  400754:	c3                   	retq   
  400755:	90                   	nop
  400756:	66 2e 0f 1f 84 00 00 	nopw   %cs:0x0(%rax,%rax,1)
  40075d:	00 00 00 

0000000000400760 <__libc_csu_fini>:
  400760:	f3 c3                	repz retq 

Disassembly of section .fini:

0000000000400764 <_fini>:
  400764:	48 83 ec 08          	sub    $0x8,%rsp
  400768:	48 83 c4 08          	add    $0x8,%rsp
  40076c:	c3                   	retq   

Disassembly of section section_ddd_func:

0000000003000003 <ddd_func_dance>:
 3000003:	55                   	push   %rbp
 3000004:	48 89 e5             	mov    %rsp,%rbp
 3000007:	89 7d fc             	mov    %edi,-0x4(%rbp)
 300000a:	8b 45 fc             	mov    -0x4(%rbp),%eax
 300000d:	05 2c 01 00 00       	add    $0x12c,%eax
 3000012:	5d                   	pop    %rbp
 3000013:	c3                   	retq   

Disassembly of section section_eee_data:

0000000007000008 <eee_color>:
 7000008:	a4                   	movsb  %ds:(%rsi),%es:(%rdi)
 7000009:	a3 a2 a1 00 00 00 00 	movabs %eax,0x777800000000a1a2
 7000010:	78 77 

0000000007000010 <eee_height>:
 7000010:	78 77                	js     7000089 <eee_data_end+0x6d>
 7000012:	76 75                	jbe    7000089 <eee_data_end+0x6d>
 7000014:	74 73                	je     7000089 <eee_data_end+0x6d>
 7000016:	72 71                	jb     7000089 <eee_data_end+0x6d>

0000000007000018 <eee_data_inner>:
 7000018:	b4 b3                	mov    $0xb3,%ah
 700001a:	b2 b1                	mov    $0xb1,%dl

Disassembly of section section_www_data:

000000000700001c <www_fish>:
 700001c:	94                   	xchg   %eax,%esp
 700001d:	93                   	xchg   %eax,%ebx
 700001e:	92                   	xchg   %eax,%edx
 700001f:	91                   	xchg   %eax,%ecx
