
main:     file format elf64-x86-64


Disassembly of section .init:

0000000000400698 <_init>:
  400698:	48 83 ec 08          	sub    $0x8,%rsp
  40069c:	48 8b 05 55 09 20 00 	mov    0x200955(%rip),%rax        # 600ff8 <__gmon_start__>
  4006a3:	48 85 c0             	test   %rax,%rax
  4006a6:	74 05                	je     4006ad <_init+0x15>
  4006a8:	e8 73 00 00 00       	callq  400720 <__gmon_start__@plt>
  4006ad:	48 83 c4 08          	add    $0x8,%rsp
  4006b1:	c3                   	retq   

Disassembly of section .plt:

00000000004006c0 <.plt>:
  4006c0:	ff 35 42 09 20 00    	pushq  0x200942(%rip)        # 601008 <_GLOBAL_OFFSET_TABLE_+0x8>
  4006c6:	ff 25 44 09 20 00    	jmpq   *0x200944(%rip)        # 601010 <_GLOBAL_OFFSET_TABLE_+0x10>
  4006cc:	0f 1f 40 00          	nopl   0x0(%rax)

00000000004006d0 <putchar@plt>:
  4006d0:	ff 25 42 09 20 00    	jmpq   *0x200942(%rip)        # 601018 <putchar@GLIBC_2.2.5>
  4006d6:	68 00 00 00 00       	pushq  $0x0
  4006db:	e9 e0 ff ff ff       	jmpq   4006c0 <.plt>

00000000004006e0 <puts@plt>:
  4006e0:	ff 25 3a 09 20 00    	jmpq   *0x20093a(%rip)        # 601020 <puts@GLIBC_2.2.5>
  4006e6:	68 01 00 00 00       	pushq  $0x1
  4006eb:	e9 d0 ff ff ff       	jmpq   4006c0 <.plt>

00000000004006f0 <printf@plt>:
  4006f0:	ff 25 32 09 20 00    	jmpq   *0x200932(%rip)        # 601028 <printf@GLIBC_2.2.5>
  4006f6:	68 02 00 00 00       	pushq  $0x2
  4006fb:	e9 c0 ff ff ff       	jmpq   4006c0 <.plt>

0000000000400700 <shared_dance@plt>:
  400700:	ff 25 2a 09 20 00    	jmpq   *0x20092a(%rip)        # 601030 <shared_dance>
  400706:	68 03 00 00 00       	pushq  $0x3
  40070b:	e9 b0 ff ff ff       	jmpq   4006c0 <.plt>

0000000000400710 <__libc_start_main@plt>:
  400710:	ff 25 22 09 20 00    	jmpq   *0x200922(%rip)        # 601038 <__libc_start_main@GLIBC_2.2.5>
  400716:	68 04 00 00 00       	pushq  $0x4
  40071b:	e9 a0 ff ff ff       	jmpq   4006c0 <.plt>

0000000000400720 <__gmon_start__@plt>:
  400720:	ff 25 1a 09 20 00    	jmpq   *0x20091a(%rip)        # 601040 <__gmon_start__>
  400726:	68 05 00 00 00       	pushq  $0x5
  40072b:	e9 90 ff ff ff       	jmpq   4006c0 <.plt>

0000000000400730 <sleep@plt>:
  400730:	ff 25 12 09 20 00    	jmpq   *0x200912(%rip)        # 601048 <sleep@GLIBC_2.2.5>
  400736:	68 06 00 00 00       	pushq  $0x6
  40073b:	e9 80 ff ff ff       	jmpq   4006c0 <.plt>

Disassembly of section .text:

0000000000400740 <_start>:
  400740:	31 ed                	xor    %ebp,%ebp
  400742:	49 89 d1             	mov    %rdx,%r9
  400745:	5e                   	pop    %rsi
  400746:	48 89 e2             	mov    %rsp,%rdx
  400749:	48 83 e4 f0          	and    $0xfffffffffffffff0,%rsp
  40074d:	50                   	push   %rax
  40074e:	54                   	push   %rsp
  40074f:	49 c7 c0 60 0a 40 00 	mov    $0x400a60,%r8
  400756:	48 c7 c1 f0 09 40 00 	mov    $0x4009f0,%rcx
  40075d:	48 c7 c7 49 09 40 00 	mov    $0x400949,%rdi
  400764:	e8 a7 ff ff ff       	callq  400710 <__libc_start_main@plt>
  400769:	f4                   	hlt    
  40076a:	66 0f 1f 44 00 00    	nopw   0x0(%rax,%rax,1)

0000000000400770 <deregister_tm_clones>:
  400770:	b8 5f 10 60 00       	mov    $0x60105f,%eax
  400775:	55                   	push   %rbp
  400776:	48 2d 58 10 60 00    	sub    $0x601058,%rax
  40077c:	48 83 f8 0e          	cmp    $0xe,%rax
  400780:	48 89 e5             	mov    %rsp,%rbp
  400783:	77 02                	ja     400787 <deregister_tm_clones+0x17>
  400785:	5d                   	pop    %rbp
  400786:	c3                   	retq   
  400787:	b8 00 00 00 00       	mov    $0x0,%eax
  40078c:	48 85 c0             	test   %rax,%rax
  40078f:	74 f4                	je     400785 <deregister_tm_clones+0x15>
  400791:	5d                   	pop    %rbp
  400792:	bf 58 10 60 00       	mov    $0x601058,%edi
  400797:	ff e0                	jmpq   *%rax
  400799:	0f 1f 80 00 00 00 00 	nopl   0x0(%rax)

00000000004007a0 <register_tm_clones>:
  4007a0:	b8 58 10 60 00       	mov    $0x601058,%eax
  4007a5:	55                   	push   %rbp
  4007a6:	48 2d 58 10 60 00    	sub    $0x601058,%rax
  4007ac:	48 c1 f8 03          	sar    $0x3,%rax
  4007b0:	48 89 e5             	mov    %rsp,%rbp
  4007b3:	48 89 c2             	mov    %rax,%rdx
  4007b6:	48 c1 ea 3f          	shr    $0x3f,%rdx
  4007ba:	48 01 d0             	add    %rdx,%rax
  4007bd:	48 d1 f8             	sar    %rax
  4007c0:	75 02                	jne    4007c4 <register_tm_clones+0x24>
  4007c2:	5d                   	pop    %rbp
  4007c3:	c3                   	retq   
  4007c4:	ba 00 00 00 00       	mov    $0x0,%edx
  4007c9:	48 85 d2             	test   %rdx,%rdx
  4007cc:	74 f4                	je     4007c2 <register_tm_clones+0x22>
  4007ce:	5d                   	pop    %rbp
  4007cf:	48 89 c6             	mov    %rax,%rsi
  4007d2:	bf 58 10 60 00       	mov    $0x601058,%edi
  4007d7:	ff e2                	jmpq   *%rdx
  4007d9:	0f 1f 80 00 00 00 00 	nopl   0x0(%rax)

00000000004007e0 <__do_global_dtors_aux>:
  4007e0:	80 3d 7d 08 20 00 00 	cmpb   $0x0,0x20087d(%rip)        # 601064 <completed.6355>
  4007e7:	75 11                	jne    4007fa <__do_global_dtors_aux+0x1a>
  4007e9:	55                   	push   %rbp
  4007ea:	48 89 e5             	mov    %rsp,%rbp
  4007ed:	e8 7e ff ff ff       	callq  400770 <deregister_tm_clones>
  4007f2:	5d                   	pop    %rbp
  4007f3:	c6 05 6a 08 20 00 01 	movb   $0x1,0x20086a(%rip)        # 601064 <completed.6355>
  4007fa:	f3 c3                	repz retq 
  4007fc:	0f 1f 40 00          	nopl   0x0(%rax)

0000000000400800 <frame_dummy>:
  400800:	48 83 3d 08 06 20 00 	cmpq   $0x0,0x200608(%rip)        # 600e10 <__JCR_END__>
  400807:	00 
  400808:	74 1e                	je     400828 <frame_dummy+0x28>
  40080a:	b8 00 00 00 00       	mov    $0x0,%eax
  40080f:	48 85 c0             	test   %rax,%rax
  400812:	74 14                	je     400828 <frame_dummy+0x28>
  400814:	55                   	push   %rbp
  400815:	bf 10 0e 60 00       	mov    $0x600e10,%edi
  40081a:	48 89 e5             	mov    %rsp,%rbp
  40081d:	ff d0                	callq  *%rax
  40081f:	5d                   	pop    %rbp
  400820:	e9 7b ff ff ff       	jmpq   4007a0 <register_tm_clones>
  400825:	0f 1f 00             	nopl   (%rax)
  400828:	e9 73 ff ff ff       	jmpq   4007a0 <register_tm_clones>

000000000040082d <print_symbol>:
  40082d:	55                   	push   %rbp
  40082e:	48 89 e5             	mov    %rsp,%rbp
  400831:	48 83 ec 20          	sub    $0x20,%rsp
  400835:	48 89 7d f8          	mov    %rdi,-0x8(%rbp)
  400839:	48 89 75 f0          	mov    %rsi,-0x10(%rbp)
  40083d:	89 55 ec             	mov    %edx,-0x14(%rbp)
  400840:	48 8b 55 f0          	mov    -0x10(%rbp),%rdx
  400844:	48 8b 45 f8          	mov    -0x8(%rbp),%rax
  400848:	48 89 c6             	mov    %rax,%rsi
  40084b:	bf 80 0a 40 00       	mov    $0x400a80,%edi
  400850:	b8 00 00 00 00       	mov    $0x0,%eax
  400855:	e8 96 fe ff ff       	callq  4006f0 <printf@plt>
  40085a:	83 7d ec 00          	cmpl   $0x0,-0x14(%rbp)
  40085e:	74 14                	je     400874 <print_symbol+0x47>
  400860:	8b 45 ec             	mov    -0x14(%rbp),%eax
  400863:	89 c6                	mov    %eax,%esi
  400865:	bf 96 0a 40 00       	mov    $0x400a96,%edi
  40086a:	b8 00 00 00 00       	mov    $0x0,%eax
  40086f:	e8 7c fe ff ff       	callq  4006f0 <printf@plt>
  400874:	bf 0a 00 00 00       	mov    $0xa,%edi
  400879:	e8 52 fe ff ff       	callq  4006d0 <putchar@plt>
  40087e:	c9                   	leaveq 
  40087f:	c3                   	retq   

0000000000400880 <main_print>:
  400880:	55                   	push   %rbp
  400881:	48 89 e5             	mov    %rsp,%rbp
  400884:	48 83 ec 50          	sub    $0x50,%rsp
  400888:	48 c7 45 f8 60 10 60 	movq   $0x601060,-0x8(%rbp)
  40088f:	00 
  400890:	48 c7 45 f0 58 10 60 	movq   $0x601058,-0x10(%rbp)
  400897:	00 
  400898:	c7 45 ec 11 11 11 00 	movl   $0x111111,-0x14(%rbp)
  40089f:	48 c7 45 e0 5c 10 60 	movq   $0x60105c,-0x20(%rbp)
  4008a6:	00 
  4008a7:	48 c7 45 d8 54 10 60 	movq   $0x601054,-0x28(%rbp)
  4008ae:	00 
  4008af:	48 c7 45 d0 00 07 40 	movq   $0x400700,-0x30(%rbp)
  4008b6:	00 
  4008b7:	48 c7 45 c8 f0 06 40 	movq   $0x4006f0,-0x38(%rbp)
  4008be:	00 
  4008bf:	c7 45 c4 22 22 22 00 	movl   $0x222222,-0x3c(%rbp)
  4008c6:	8b 05 90 07 20 00    	mov    0x200790(%rip),%eax        # 60105c <shared_color>
  4008cc:	89 45 c0             	mov    %eax,-0x40(%rbp)
  4008cf:	8b 05 7f 07 20 00    	mov    0x20077f(%rip),%eax        # 601054 <main_month>
  4008d5:	89 45 bc             	mov    %eax,-0x44(%rbp)
  4008d8:	c7 45 b8 33 33 33 00 	movl   $0x333333,-0x48(%rbp)
  4008df:	bf a7 0a 40 00       	mov    $0x400aa7,%edi
  4008e4:	e8 f7 fd ff ff       	callq  4006e0 <puts@plt>
  4008e9:	8b 55 c0             	mov    -0x40(%rbp),%edx
  4008ec:	48 8b 45 e0          	mov    -0x20(%rbp),%rax
  4008f0:	48 89 c6             	mov    %rax,%rsi
  4008f3:	bf bb 0a 40 00       	mov    $0x400abb,%edi
  4008f8:	e8 30 ff ff ff       	callq  40082d <print_symbol>
  4008fd:	8b 55 bc             	mov    -0x44(%rbp),%edx
  400900:	48 8b 45 d8          	mov    -0x28(%rbp),%rax
  400904:	48 89 c6             	mov    %rax,%rsi
  400907:	bf c8 0a 40 00       	mov    $0x400ac8,%edi
  40090c:	e8 1c ff ff ff       	callq  40082d <print_symbol>
  400911:	48 8b 45 d0          	mov    -0x30(%rbp),%rax
  400915:	ba 00 00 00 00       	mov    $0x0,%edx
  40091a:	48 89 c6             	mov    %rax,%rsi
  40091d:	bf d3 0a 40 00       	mov    $0x400ad3,%edi
  400922:	e8 06 ff ff ff       	callq  40082d <print_symbol>
  400927:	48 8b 45 c8          	mov    -0x38(%rbp),%rax
  40092b:	ba 00 00 00 00       	mov    $0x0,%edx
  400930:	48 89 c6             	mov    %rax,%rsi
  400933:	bf e2 0a 40 00       	mov    $0x400ae2,%edi
  400938:	e8 f0 fe ff ff       	callq  40082d <print_symbol>
  40093d:	bf 0a 00 00 00       	mov    $0xa,%edi
  400942:	e8 89 fd ff ff       	callq  4006d0 <putchar@plt>
  400947:	c9                   	leaveq 
  400948:	c3                   	retq   

0000000000400949 <main>:
  400949:	55                   	push   %rbp
  40094a:	48 89 e5             	mov    %rsp,%rbp
  40094d:	48 83 ec 20          	sub    $0x20,%rsp
  400951:	c7 05 01 07 20 00 74 	movl   $0x71727374,0x200701(%rip)        # 60105c <shared_color>
  400958:	73 72 71 
  40095b:	48 c7 45 f8 30 10 60 	movq   $0x601030,-0x8(%rbp)
  400962:	00 
  400963:	48 8b 45 f8          	mov    -0x8(%rbp),%rax
  400967:	48 89 45 f0          	mov    %rax,-0x10(%rbp)
  40096b:	48 8b 45 f0          	mov    -0x10(%rbp),%rax
  40096f:	48 8b 00             	mov    (%rax),%rax
  400972:	48 89 45 e8          	mov    %rax,-0x18(%rbp)
  400976:	b8 00 00 00 00       	mov    $0x0,%eax
  40097b:	e8 80 fd ff ff       	callq  400700 <shared_dance@plt>
  400980:	bf f0 0a 40 00       	mov    $0x400af0,%edi
  400985:	e8 56 fd ff ff       	callq  4006e0 <puts@plt>
  40098a:	48 8b 45 f0          	mov    -0x10(%rbp),%rax
  40098e:	48 8b 00             	mov    (%rax),%rax
  400991:	48 89 45 e0          	mov    %rax,-0x20(%rbp)
  400995:	48 8b 45 e8          	mov    -0x18(%rbp),%rax
  400999:	48 89 c6             	mov    %rax,%rsi
  40099c:	bf 10 0b 40 00       	mov    $0x400b10,%edi
  4009a1:	b8 00 00 00 00       	mov    $0x0,%eax
  4009a6:	e8 45 fd ff ff       	callq  4006f0 <printf@plt>
  4009ab:	48 8b 45 e0          	mov    -0x20(%rbp),%rax
  4009af:	48 89 c6             	mov    %rax,%rsi
  4009b2:	bf 40 0b 40 00       	mov    $0x400b40,%edi
  4009b7:	b8 00 00 00 00       	mov    $0x0,%eax
  4009bc:	e8 2f fd ff ff       	callq  4006f0 <printf@plt>
  4009c1:	bf 0a 00 00 00       	mov    $0xa,%edi
  4009c6:	e8 05 fd ff ff       	callq  4006d0 <putchar@plt>
  4009cb:	b8 00 00 00 00       	mov    $0x0,%eax
  4009d0:	e8 ab fe ff ff       	callq  400880 <main_print>
  4009d5:	bf a0 bb 0d 00       	mov    $0xdbba0,%edi
  4009da:	e8 51 fd ff ff       	callq  400730 <sleep@plt>
  4009df:	b8 00 00 00 00       	mov    $0x0,%eax
  4009e4:	c9                   	leaveq 
  4009e5:	c3                   	retq   
  4009e6:	66 2e 0f 1f 84 00 00 	nopw   %cs:0x0(%rax,%rax,1)
  4009ed:	00 00 00 

00000000004009f0 <__libc_csu_init>:
  4009f0:	41 57                	push   %r15
  4009f2:	41 89 ff             	mov    %edi,%r15d
  4009f5:	41 56                	push   %r14
  4009f7:	49 89 f6             	mov    %rsi,%r14
  4009fa:	41 55                	push   %r13
  4009fc:	49 89 d5             	mov    %rdx,%r13
  4009ff:	41 54                	push   %r12
  400a01:	4c 8d 25 f8 03 20 00 	lea    0x2003f8(%rip),%r12        # 600e00 <__frame_dummy_init_array_entry>
  400a08:	55                   	push   %rbp
  400a09:	48 8d 2d f8 03 20 00 	lea    0x2003f8(%rip),%rbp        # 600e08 <__init_array_end>
  400a10:	53                   	push   %rbx
  400a11:	4c 29 e5             	sub    %r12,%rbp
  400a14:	31 db                	xor    %ebx,%ebx
  400a16:	48 c1 fd 03          	sar    $0x3,%rbp
  400a1a:	48 83 ec 08          	sub    $0x8,%rsp
  400a1e:	e8 75 fc ff ff       	callq  400698 <_init>
  400a23:	48 85 ed             	test   %rbp,%rbp
  400a26:	74 1e                	je     400a46 <__libc_csu_init+0x56>
  400a28:	0f 1f 84 00 00 00 00 	nopl   0x0(%rax,%rax,1)
  400a2f:	00 
  400a30:	4c 89 ea             	mov    %r13,%rdx
  400a33:	4c 89 f6             	mov    %r14,%rsi
  400a36:	44 89 ff             	mov    %r15d,%edi
  400a39:	41 ff 14 dc          	callq  *(%r12,%rbx,8)
  400a3d:	48 83 c3 01          	add    $0x1,%rbx
  400a41:	48 39 eb             	cmp    %rbp,%rbx
  400a44:	75 ea                	jne    400a30 <__libc_csu_init+0x40>
  400a46:	48 83 c4 08          	add    $0x8,%rsp
  400a4a:	5b                   	pop    %rbx
  400a4b:	5d                   	pop    %rbp
  400a4c:	41 5c                	pop    %r12
  400a4e:	41 5d                	pop    %r13
  400a50:	41 5e                	pop    %r14
  400a52:	41 5f                	pop    %r15
  400a54:	c3                   	retq   
  400a55:	90                   	nop
  400a56:	66 2e 0f 1f 84 00 00 	nopw   %cs:0x0(%rax,%rax,1)
  400a5d:	00 00 00 

0000000000400a60 <__libc_csu_fini>:
  400a60:	f3 c3                	repz retq 

Disassembly of section .fini:

0000000000400a64 <_fini>:
  400a64:	48 83 ec 08          	sub    $0x8,%rsp
  400a68:	48 83 c4 08          	add    $0x8,%rsp
  400a6c:	c3                   	retq   
